
framebuff.gdb:     file format elf32-littleriscv


Disassembly of section .text:

00000000 <_start-0x4>:
       0:	0000                	.2byte	0x0
	...

00000004 <_start>:
       4:	02c000ef          	jal	30 <.Lload_gp>
       8:	00050793          	mv	a5,a0
       c:	0000f517          	auipc	a0,0xf
      10:	39050513          	add	a0,a0,912 # f39c <main>
      14:	00012583          	lw	a1,0(sp)
      18:	00410613          	add	a2,sp,4
      1c:	ff017113          	and	sp,sp,-16
      20:	00000693          	li	a3,0
      24:	00000713          	li	a4,0
      28:	00010813          	mv	a6,sp
      2c:	5f10306f          	j	3e1c <__uClibc_main>

00000030 <.Lload_gp>:
      30:	00011197          	auipc	gp,0x11
      34:	af018193          	add	gp,gp,-1296 # 10b20 <__global_pointer$>
      38:	00008067          	ret

0000003c <deregister_tm_clones>:
      3c:	00012517          	auipc	a0,0x12
      40:	39050513          	add	a0,a0,912 # 123cc <__TMC_END__>
      44:	00012797          	auipc	a5,0x12
      48:	38878793          	add	a5,a5,904 # 123cc <__TMC_END__>
      4c:	00a78a63          	beq	a5,a0,60 <.L1>
      50:	00010797          	auipc	a5,0x10
      54:	2687a783          	lw	a5,616(a5) # 102b8 <.LLST90+0x13>
      58:	00078463          	beqz	a5,60 <.L1>
      5c:	00078067          	jr	a5

00000060 <.L1>:
      60:	00008067          	ret

00000064 <register_tm_clones>:
      64:	00012517          	auipc	a0,0x12
      68:	36850513          	add	a0,a0,872 # 123cc <__TMC_END__>
      6c:	00012597          	auipc	a1,0x12
      70:	36058593          	add	a1,a1,864 # 123cc <__TMC_END__>
      74:	40a585b3          	sub	a1,a1,a0
      78:	4025d593          	sra	a1,a1,0x2
      7c:	00200793          	li	a5,2
      80:	02f5c5b3          	div	a1,a1,a5
      84:	00058a63          	beqz	a1,98 <.L6>
      88:	00010797          	auipc	a5,0x10
      8c:	2247a783          	lw	a5,548(a5) # 102ac <.LLST90+0x7>
      90:	00078463          	beqz	a5,98 <.L6>
      94:	00078067          	jr	a5

00000098 <.L6>:
      98:	00008067          	ret

0000009c <__do_global_dtors_aux>:
      9c:	ff010113          	add	sp,sp,-16
      a0:	00812423          	sw	s0,8(sp)
      a4:	00014417          	auipc	s0,0x14
      a8:	c8440413          	add	s0,s0,-892 # 13d28 <completed.1>
      ac:	00044783          	lbu	a5,0(s0)
      b0:	00112623          	sw	ra,12(sp)
      b4:	02079463          	bnez	a5,dc <.L14>
      b8:	f85ff0ef          	jal	3c <deregister_tm_clones>
      bc:	00010797          	auipc	a5,0x10
      c0:	1ec7a783          	lw	a5,492(a5) # 102a8 <.LLST90+0x3>
      c4:	00078863          	beqz	a5,d4 <.L16>
      c8:	00012517          	auipc	a0,0x12
      cc:	30450513          	add	a0,a0,772 # 123cc <__TMC_END__>
      d0:	000780e7          	jalr	a5

000000d4 <.L16>:
      d4:	00100793          	li	a5,1
      d8:	00f40023          	sb	a5,0(s0)

000000dc <.L14>:
      dc:	00c12083          	lw	ra,12(sp)
      e0:	00812403          	lw	s0,8(sp)
      e4:	01010113          	add	sp,sp,16
      e8:	00008067          	ret

000000ec <frame_dummy>:
      ec:	00010797          	auipc	a5,0x10
      f0:	1ec7a783          	lw	a5,492(a5) # 102d8 <.LLST90+0x33>
      f4:	02078463          	beqz	a5,11c <.L27>
      f8:	ff010113          	add	sp,sp,-16
      fc:	00112623          	sw	ra,12(sp)
     100:	00014597          	auipc	a1,0x14
     104:	c2c58593          	add	a1,a1,-980 # 13d2c <object.0>
     108:	00012517          	auipc	a0,0x12
     10c:	2c450513          	add	a0,a0,708 # 123cc <__TMC_END__>
     110:	000780e7          	jalr	a5
     114:	00c12083          	lw	ra,12(sp)
     118:	01010113          	add	sp,sp,16

0000011c <.L27>:
     11c:	f49ff06f          	j	64 <register_tm_clones>

00000120 <__divdi3>:
#endif

#ifdef L_divdi3
DWtype
__divdi3 (DWtype u, DWtype v)
{
     120:	00050313          	mv	t1,a0
     124:	00058e13          	mv	t3,a1

00000128 <.LVL1>:
  Wtype c = 0;
     128:	00000893          	li	a7,0
  DWunion uu = {.ll = u};
  DWunion vv = {.ll = v};
  DWtype w;

  if (uu.s.high < 0)
     12c:	0005dc63          	bgez	a1,144 <.L2>

00000130 <.LVL2>:
    c = ~c,
    uu.ll = -uu.ll;
     130:	00a037b3          	snez	a5,a0
     134:	40b00e33          	neg	t3,a1
     138:	40fe0e33          	sub	t3,t3,a5
     13c:	40a00333          	neg	t1,a0
    c = ~c,
     140:	fff00893          	li	a7,-1

00000144 <.L2>:
  if (vv.s.high < 0)
     144:	0006dc63          	bgez	a3,15c <.L3>
    c = ~c,
    vv.ll = -vv.ll;
     148:	00c037b3          	snez	a5,a2
     14c:	40d006b3          	neg	a3,a3

00000150 <.LVL4>:
    c = ~c,
     150:	fff8c893          	not	a7,a7
    vv.ll = -vv.ll;
     154:	40f686b3          	sub	a3,a3,a5
     158:	40c00633          	neg	a2,a2

0000015c <.L3>:
  d0 = dd.s.low;
     15c:	00060713          	mv	a4,a2

00000160 <.LVL7>:
  n0 = nn.s.low;
     160:	00030813          	mv	a6,t1

00000164 <.LVL8>:
  n1 = nn.s.high;
     164:	000e0793          	mv	a5,t3
  if (d1 == 0)
     168:	28069c63          	bnez	a3,400 <.L4>
      if (d0 > n1)
     16c:	00010597          	auipc	a1,0x10
     170:	1545a583          	lw	a1,340(a1) # 102c0 <.LLST90+0x1b>
     174:	0ece7663          	bgeu	t3,a2,260 <.L5>

00000178 <.LBB18>:
	  count_leading_zeros (bm, d0);
     178:	000106b7          	lui	a3,0x10
     17c:	0cd67863          	bgeu	a2,a3,24c <.L6>
     180:	10063693          	sltiu	a3,a2,256
     184:	0016b693          	seqz	a3,a3
     188:	00369693          	sll	a3,a3,0x3

0000018c <.L7>:
     18c:	00d65533          	srl	a0,a2,a3
     190:	00a585b3          	add	a1,a1,a0
     194:	0005c583          	lbu	a1,0(a1)
     198:	02000513          	li	a0,32
     19c:	00d586b3          	add	a3,a1,a3

000001a0 <.LVL12>:
     1a0:	40d505b3          	sub	a1,a0,a3

000001a4 <.LBE18>:
	  if (bm != 0)
     1a4:	00d50c63          	beq	a0,a3,1bc <.L8>

000001a8 <.LVL14>:
	      n1 = (n1 << bm) | (n0 >> (W_TYPE_SIZE - bm));
     1a8:	00be17b3          	sll	a5,t3,a1
     1ac:	00d356b3          	srl	a3,t1,a3
	      d0 = d0 << bm;
     1b0:	00b61733          	sll	a4,a2,a1

000001b4 <.LVL15>:
	      n1 = (n1 << bm) | (n0 >> (W_TYPE_SIZE - bm));
     1b4:	00f6e7b3          	or	a5,a3,a5

000001b8 <.LVL16>:
	      n0 = n0 << bm;
     1b8:	00b31833          	sll	a6,t1,a1

000001bc <.L8>:
	  udiv_qrnnd (q0, n0, n1, n0, d0);
     1bc:	01075593          	srl	a1,a4,0x10

000001c0 <.LVL18>:
     1c0:	02b7de33          	divu	t3,a5,a1
     1c4:	01071613          	sll	a2,a4,0x10
     1c8:	01065613          	srl	a2,a2,0x10

000001cc <.LVL19>:
     1cc:	02b7f7b3          	remu	a5,a5,a1

000001d0 <.LVL20>:
     1d0:	000e0513          	mv	a0,t3
     1d4:	03c60333          	mul	t1,a2,t3

000001d8 <.LVL21>:
     1d8:	01079693          	sll	a3,a5,0x10
     1dc:	01085793          	srl	a5,a6,0x10

000001e0 <.LVL22>:
     1e0:	00d7e7b3          	or	a5,a5,a3

000001e4 <.LVL23>:
     1e4:	0067fe63          	bgeu	a5,t1,200 <.L9>
     1e8:	00f707b3          	add	a5,a4,a5

000001ec <.LVL24>:
     1ec:	fffe0513          	add	a0,t3,-1

000001f0 <.LVL25>:
     1f0:	00e7e863          	bltu	a5,a4,200 <.L9>
     1f4:	0067f663          	bgeu	a5,t1,200 <.L9>
     1f8:	ffee0513          	add	a0,t3,-2
     1fc:	00e787b3          	add	a5,a5,a4

00000200 <.L9>:
     200:	406787b3          	sub	a5,a5,t1

00000204 <.LVL28>:
     204:	02b7d333          	divu	t1,a5,a1

00000208 <.LVL29>:
     208:	01081813          	sll	a6,a6,0x10

0000020c <.LVL30>:
     20c:	01085813          	srl	a6,a6,0x10
     210:	02b7f7b3          	remu	a5,a5,a1

00000214 <.LVL31>:
     214:	026606b3          	mul	a3,a2,t1

00000218 <.LVL32>:
     218:	01079793          	sll	a5,a5,0x10

0000021c <.LVL33>:
     21c:	00f86833          	or	a6,a6,a5

00000220 <.LVL34>:
     220:	00030793          	mv	a5,t1
     224:	00d87c63          	bgeu	a6,a3,23c <.L12>
     228:	01070833          	add	a6,a4,a6

0000022c <.LVL35>:
     22c:	fff30793          	add	a5,t1,-1

00000230 <.LVL36>:
     230:	00e86663          	bltu	a6,a4,23c <.L12>
     234:	00d87463          	bgeu	a6,a3,23c <.L12>
     238:	ffe30793          	add	a5,t1,-2

0000023c <.L12>:
     23c:	01051513          	sll	a0,a0,0x10

00000240 <.LVL38>:
     240:	00f56533          	or	a0,a0,a5

00000244 <.L59>:
	      q1 = 0;
     244:	00000593          	li	a1,0
     248:	0e00006f          	j	328 <.L15>

0000024c <.L6>:
	  count_leading_zeros (bm, d0);
     24c:	01000537          	lui	a0,0x1000

00000250 <.LVL41>:
     250:	01800693          	li	a3,24
     254:	f2a67ce3          	bgeu	a2,a0,18c <.L7>
     258:	01000693          	li	a3,16
     25c:	f31ff06f          	j	18c <.L7>

00000260 <.L5>:
	  count_leading_zeros (bm, d0);
     260:	00000693          	li	a3,0

00000264 <.LBE31>:
	  if (d0 == 0)
     264:	00060c63          	beqz	a2,27c <.L16>

00000268 <.LBB32>:
	  count_leading_zeros (bm, d0);
     268:	000107b7          	lui	a5,0x10
     26c:	0cf67a63          	bgeu	a2,a5,340 <.L17>

00000270 <.LVL44>:
     270:	10063693          	sltiu	a3,a2,256
     274:	0016b693          	seqz	a3,a3
     278:	00369693          	sll	a3,a3,0x3

0000027c <.L16>:
     27c:	00d657b3          	srl	a5,a2,a3
     280:	00f585b3          	add	a1,a1,a5
     284:	0005c783          	lbu	a5,0(a1)
     288:	00d787b3          	add	a5,a5,a3
     28c:	02000693          	li	a3,32

00000290 <.LVL46>:
     290:	40f685b3          	sub	a1,a3,a5

00000294 <.LBE32>:
	  if (bm == 0)
     294:	0cf69063          	bne	a3,a5,354 <.L18>
	      n1 -= d0;
     298:	40ce07b3          	sub	a5,t3,a2

0000029c <.LVL48>:
	      q1 = 1;
     29c:	00100593          	li	a1,1

000002a0 <.L19>:
	  udiv_qrnnd (q0, n0, n1, n0, d0);
     2a0:	01075313          	srl	t1,a4,0x10

000002a4 <.LVL50>:
     2a4:	0267deb3          	divu	t4,a5,t1
     2a8:	01071613          	sll	a2,a4,0x10
     2ac:	01065613          	srl	a2,a2,0x10

000002b0 <.LVL51>:
     2b0:	01085693          	srl	a3,a6,0x10
     2b4:	0267f7b3          	remu	a5,a5,t1

000002b8 <.LVL52>:
     2b8:	000e8513          	mv	a0,t4
     2bc:	03d60e33          	mul	t3,a2,t4

000002c0 <.LVL53>:
     2c0:	01079793          	sll	a5,a5,0x10

000002c4 <.LVL54>:
     2c4:	00f6e7b3          	or	a5,a3,a5

000002c8 <.LVL55>:
     2c8:	01c7fe63          	bgeu	a5,t3,2e4 <.L26>
     2cc:	00f707b3          	add	a5,a4,a5

000002d0 <.LVL56>:
     2d0:	fffe8513          	add	a0,t4,-1

000002d4 <.LVL57>:
     2d4:	00e7e863          	bltu	a5,a4,2e4 <.L26>
     2d8:	01c7f663          	bgeu	a5,t3,2e4 <.L26>
     2dc:	ffee8513          	add	a0,t4,-2
     2e0:	00e787b3          	add	a5,a5,a4

000002e4 <.L26>:
     2e4:	41c787b3          	sub	a5,a5,t3

000002e8 <.LVL60>:
     2e8:	0267de33          	divu	t3,a5,t1

000002ec <.LVL61>:
     2ec:	01081813          	sll	a6,a6,0x10

000002f0 <.LVL62>:
     2f0:	01085813          	srl	a6,a6,0x10
     2f4:	0267f7b3          	remu	a5,a5,t1

000002f8 <.LVL63>:
     2f8:	03c606b3          	mul	a3,a2,t3

000002fc <.LVL64>:
     2fc:	01079793          	sll	a5,a5,0x10

00000300 <.LVL65>:
     300:	00f86833          	or	a6,a6,a5

00000304 <.LVL66>:
     304:	000e0793          	mv	a5,t3
     308:	00d87c63          	bgeu	a6,a3,320 <.L29>
     30c:	01070833          	add	a6,a4,a6

00000310 <.LVL67>:
     310:	fffe0793          	add	a5,t3,-1

00000314 <.LVL68>:
     314:	00e86663          	bltu	a6,a4,320 <.L29>
     318:	00d87463          	bgeu	a6,a3,320 <.L29>
     31c:	ffee0793          	add	a5,t3,-2

00000320 <.L29>:
     320:	01051513          	sll	a0,a0,0x10

00000324 <.LVL70>:
     324:	00f56533          	or	a0,a0,a5

00000328 <.L15>:

  w = __udivmoddi4 (uu.ll, vv.ll, (UDWtype *) 0);
  if (c)
     328:	00088a63          	beqz	a7,33c <.L1>
    w = -w;
     32c:	00a037b3          	snez	a5,a0
     330:	40b005b3          	neg	a1,a1

00000334 <.LVL72>:
     334:	40f585b3          	sub	a1,a1,a5
     338:	40a00533          	neg	a0,a0

0000033c <.L1>:

  return w;
}
     33c:	00008067          	ret

00000340 <.L17>:
	  count_leading_zeros (bm, d0);
     340:	010007b7          	lui	a5,0x1000
     344:	01800693          	li	a3,24
     348:	f2f67ae3          	bgeu	a2,a5,27c <.L16>
     34c:	01000693          	li	a3,16
     350:	f2dff06f          	j	27c <.L16>

00000354 <.L18>:
	      d0 = d0 << bm;
     354:	00b61733          	sll	a4,a2,a1

00000358 <.LVL77>:
	      n2 = n1 >> b;
     358:	00fe56b3          	srl	a3,t3,a5

0000035c <.LBB35>:
	      udiv_qrnnd (q1, n1, n2, n1, d0);
     35c:	01075513          	srl	a0,a4,0x10

00000360 <.LBE35>:
	      n1 = (n1 << bm) | (n0 >> b);
     360:	00be1e33          	sll	t3,t3,a1
     364:	00f357b3          	srl	a5,t1,a5

00000368 <.LVL80>:
     368:	01c7e7b3          	or	a5,a5,t3

0000036c <.LBB36>:
	      udiv_qrnnd (q1, n1, n2, n1, d0);
     36c:	02a6de33          	divu	t3,a3,a0
     370:	01071613          	sll	a2,a4,0x10
     374:	01065613          	srl	a2,a2,0x10

00000378 <.LBE36>:
	      n0 = n0 << bm;
     378:	00b31833          	sll	a6,t1,a1

0000037c <.LBB37>:
	      udiv_qrnnd (q1, n1, n2, n1, d0);
     37c:	02a6f6b3          	remu	a3,a3,a0

00000380 <.LVL83>:
     380:	03c60333          	mul	t1,a2,t3

00000384 <.LVL84>:
     384:	01069593          	sll	a1,a3,0x10

00000388 <.LVL85>:
     388:	0107d693          	srl	a3,a5,0x10

0000038c <.LVL86>:
     38c:	00b6e6b3          	or	a3,a3,a1

00000390 <.LVL87>:
     390:	000e0593          	mv	a1,t3
     394:	0066fe63          	bgeu	a3,t1,3b0 <.L20>
     398:	00d706b3          	add	a3,a4,a3

0000039c <.LVL88>:
     39c:	fffe0593          	add	a1,t3,-1

000003a0 <.LVL89>:
     3a0:	00e6e863          	bltu	a3,a4,3b0 <.L20>
     3a4:	0066f663          	bgeu	a3,t1,3b0 <.L20>
     3a8:	ffee0593          	add	a1,t3,-2
     3ac:	00e686b3          	add	a3,a3,a4

000003b0 <.L20>:
     3b0:	406686b3          	sub	a3,a3,t1

000003b4 <.LVL92>:
     3b4:	02a6d333          	divu	t1,a3,a0

000003b8 <.LVL93>:
     3b8:	01079793          	sll	a5,a5,0x10

000003bc <.LVL94>:
     3bc:	0107d793          	srl	a5,a5,0x10
     3c0:	02a6f6b3          	remu	a3,a3,a0

000003c4 <.LVL95>:
     3c4:	02660633          	mul	a2,a2,t1

000003c8 <.LVL96>:
     3c8:	01069693          	sll	a3,a3,0x10

000003cc <.LVL97>:
     3cc:	00d7e7b3          	or	a5,a5,a3

000003d0 <.LVL98>:
     3d0:	00030693          	mv	a3,t1
     3d4:	00c7fe63          	bgeu	a5,a2,3f0 <.L23>
     3d8:	00f707b3          	add	a5,a4,a5

000003dc <.LVL99>:
     3dc:	fff30693          	add	a3,t1,-1

000003e0 <.LVL100>:
     3e0:	00e7e863          	bltu	a5,a4,3f0 <.L23>
     3e4:	00c7f663          	bgeu	a5,a2,3f0 <.L23>
     3e8:	ffe30693          	add	a3,t1,-2
     3ec:	00e787b3          	add	a5,a5,a4

000003f0 <.L23>:
     3f0:	01059593          	sll	a1,a1,0x10

000003f4 <.LVL103>:
     3f4:	40c787b3          	sub	a5,a5,a2
     3f8:	00d5e5b3          	or	a1,a1,a3

000003fc <.LVL105>:
     3fc:	ea5ff06f          	j	2a0 <.L19>

00000400 <.L4>:
      if (d1 > n1)
     400:	18de6663          	bltu	t3,a3,58c <.L54>

00000404 <.LBB38>:
	  count_leading_zeros (bm, d1);
     404:	000107b7          	lui	a5,0x10
     408:	04f6f463          	bgeu	a3,a5,450 <.L32>
     40c:	1006b713          	sltiu	a4,a3,256
     410:	00173713          	seqz	a4,a4
     414:	00371713          	sll	a4,a4,0x3

00000418 <.L33>:
     418:	00e6d5b3          	srl	a1,a3,a4
     41c:	00010797          	auipc	a5,0x10
     420:	ea47a783          	lw	a5,-348(a5) # 102c0 <.LLST90+0x1b>
     424:	00b787b3          	add	a5,a5,a1
     428:	0007c783          	lbu	a5,0(a5)
     42c:	00e787b3          	add	a5,a5,a4
     430:	02000713          	li	a4,32

00000434 <.LVL109>:
     434:	40f705b3          	sub	a1,a4,a5

00000438 <.LBE38>:
	  if (bm == 0)
     438:	02f71663          	bne	a4,a5,464 <.L34>
		  q0 = 1;
     43c:	00100513          	li	a0,1

00000440 <.LVL111>:
	      if (n1 > d1 || n0 >= d0)
     440:	efc6e4e3          	bltu	a3,t3,328 <.L15>
     444:	00c33533          	sltu	a0,t1,a2
     448:	00153513          	seqz	a0,a0
     44c:	eddff06f          	j	328 <.L15>

00000450 <.L32>:
	  count_leading_zeros (bm, d1);
     450:	010007b7          	lui	a5,0x1000
     454:	01800713          	li	a4,24
     458:	fcf6f0e3          	bgeu	a3,a5,418 <.L33>
     45c:	01000713          	li	a4,16
     460:	fb9ff06f          	j	418 <.L33>

00000464 <.L34>:
	      d1 = (d1 << bm) | (d0 >> b);
     464:	00f65733          	srl	a4,a2,a5
     468:	00b696b3          	sll	a3,a3,a1

0000046c <.LVL114>:
     46c:	00d766b3          	or	a3,a4,a3

00000470 <.LVL115>:
	      n2 = n1 >> b;
     470:	00fe5733          	srl	a4,t3,a5
	      n1 = (n1 << bm) | (n0 >> b);
     474:	00be1e33          	sll	t3,t3,a1
     478:	00f357b3          	srl	a5,t1,a5

0000047c <.LVL116>:
     47c:	01c7e7b3          	or	a5,a5,t3

00000480 <.LBB21>:
	      udiv_qrnnd (q0, n1, n2, n1, d1);
     480:	0106de13          	srl	t3,a3,0x10
     484:	03c75f33          	divu	t5,a4,t3
     488:	01069813          	sll	a6,a3,0x10
     48c:	01085813          	srl	a6,a6,0x10

00000490 <.LBE21>:
	      d0 = d0 << bm;
     490:	00b61633          	sll	a2,a2,a1

00000494 <.LBB22>:
	      udiv_qrnnd (q0, n1, n2, n1, d1);
     494:	03c77733          	remu	a4,a4,t3

00000498 <.LVL118>:
     498:	03e80eb3          	mul	t4,a6,t5

0000049c <.LVL119>:
     49c:	01071513          	sll	a0,a4,0x10

000004a0 <.LVL120>:
     4a0:	0107d713          	srl	a4,a5,0x10

000004a4 <.LVL121>:
     4a4:	00a76733          	or	a4,a4,a0

000004a8 <.LVL122>:
     4a8:	000f0513          	mv	a0,t5
     4ac:	01d77e63          	bgeu	a4,t4,4c8 <.L35>
     4b0:	00e68733          	add	a4,a3,a4

000004b4 <.LVL123>:
     4b4:	ffff0513          	add	a0,t5,-1

000004b8 <.LVL124>:
     4b8:	00d76863          	bltu	a4,a3,4c8 <.L35>
     4bc:	01d77663          	bgeu	a4,t4,4c8 <.L35>
     4c0:	ffef0513          	add	a0,t5,-2
     4c4:	00d70733          	add	a4,a4,a3

000004c8 <.L35>:
     4c8:	41d70733          	sub	a4,a4,t4

000004cc <.LVL127>:
     4cc:	03c75eb3          	divu	t4,a4,t3

000004d0 <.LVL128>:
     4d0:	01079793          	sll	a5,a5,0x10

000004d4 <.LVL129>:
     4d4:	0107d793          	srl	a5,a5,0x10
     4d8:	03c77733          	remu	a4,a4,t3

000004dc <.LVL130>:
     4dc:	03d80833          	mul	a6,a6,t4

000004e0 <.LVL131>:
     4e0:	01071713          	sll	a4,a4,0x10

000004e4 <.LVL132>:
     4e4:	00e7e7b3          	or	a5,a5,a4

000004e8 <.LVL133>:
     4e8:	000e8713          	mv	a4,t4
     4ec:	0107fe63          	bgeu	a5,a6,508 <.L38>
     4f0:	00f687b3          	add	a5,a3,a5

000004f4 <.LVL134>:
     4f4:	fffe8713          	add	a4,t4,-1

000004f8 <.LVL135>:
     4f8:	00d7e863          	bltu	a5,a3,508 <.L38>
     4fc:	0107f663          	bgeu	a5,a6,508 <.L38>
     500:	ffee8713          	add	a4,t4,-2
     504:	00d787b3          	add	a5,a5,a3

00000508 <.L38>:
     508:	01051513          	sll	a0,a0,0x10

0000050c <.LBB23>:
	      umul_ppmm (m1, m0, q0, d0);
     50c:	00010eb7          	lui	t4,0x10

00000510 <.LBB24>:
	      udiv_qrnnd (q0, n1, n2, n1, d1);
     510:	00e56533          	or	a0,a0,a4

00000514 <.LBB25>:
	      umul_ppmm (m1, m0, q0, d0);
     514:	fffe8693          	add	a3,t4,-1 # ffff <.LVL314+0x7>

00000518 <.LVL139>:
     518:	00d57733          	and	a4,a0,a3

0000051c <.LBB26>:
	      udiv_qrnnd (q0, n1, n2, n1, d1);
     51c:	410787b3          	sub	a5,a5,a6

00000520 <.LBB27>:
	      umul_ppmm (m1, m0, q0, d0);
     520:	00d676b3          	and	a3,a2,a3
     524:	01055813          	srl	a6,a0,0x10

00000528 <.LVL142>:
     528:	01065613          	srl	a2,a2,0x10

0000052c <.LVL143>:
     52c:	02d70e33          	mul	t3,a4,a3

00000530 <.LVL144>:
     530:	02d806b3          	mul	a3,a6,a3

00000534 <.LVL145>:
     534:	02c70733          	mul	a4,a4,a2

00000538 <.LVL146>:
     538:	02c80833          	mul	a6,a6,a2

0000053c <.LVL147>:
     53c:	00d70633          	add	a2,a4,a3

00000540 <.LVL148>:
     540:	010e5713          	srl	a4,t3,0x10
     544:	00c70733          	add	a4,a4,a2

00000548 <.LVL149>:
     548:	00d77463          	bgeu	a4,a3,550 <.L41>
     54c:	01d80833          	add	a6,a6,t4

00000550 <.L41>:
     550:	01075693          	srl	a3,a4,0x10

00000554 <.LVL151>:
     554:	010686b3          	add	a3,a3,a6

00000558 <.LBE27>:
	      if (m1 > n1 || (m1 == n1 && m0 > n0))
     558:	02d7e663          	bltu	a5,a3,584 <.L42>
     55c:	ced794e3          	bne	a5,a3,244 <.L59>

00000560 <.LBB28>:
	      umul_ppmm (m1, m0, q0, d0);
     560:	000107b7          	lui	a5,0x10

00000564 <.LVL153>:
     564:	fff78793          	add	a5,a5,-1 # ffff <.LVL314+0x7>

00000568 <.LVL154>:
     568:	00f77733          	and	a4,a4,a5

0000056c <.LVL155>:
     56c:	01071713          	sll	a4,a4,0x10
     570:	00fe7e33          	and	t3,t3,a5

00000574 <.LBE28>:
	      n0 = n0 << bm;
     574:	00b31333          	sll	t1,t1,a1

00000578 <.LBB29>:
	      umul_ppmm (m1, m0, q0, d0);
     578:	01c70733          	add	a4,a4,t3

0000057c <.LBE29>:
	      q1 = 0;
     57c:	00000593          	li	a1,0

00000580 <.LVL158>:
	      if (m1 > n1 || (m1 == n1 && m0 > n0))
     580:	dae374e3          	bgeu	t1,a4,328 <.L15>

00000584 <.L42>:
		  q0--;
     584:	fff50513          	add	a0,a0,-1 # ffffff <_ebss+0xfea10f>

00000588 <.LBE40>:
		  sub_ddmmss (m1, m0, m1, m0, d1, d0);
     588:	cbdff06f          	j	244 <.L59>

0000058c <.L54>:
	  q1 = 0;
     58c:	00000593          	li	a1,0
	  q0 = 0;
     590:	00000513          	li	a0,0

00000594 <.LVL162>:
     594:	d95ff06f          	j	328 <.L15>

00000598 <__addsf3>:
  FP_DECL_S (B);
  FP_DECL_S (R);
  SFtype r;

  FP_INIT_ROUNDMODE;
  FP_UNPACK_SEMIRAW_S (A, a);
     598:	008006b7          	lui	a3,0x800
     59c:	fff68693          	add	a3,a3,-1 # 7fffff <_ebss+0x7ea10f>

000005a0 <.LBE2>:
{
     5a0:	ff010113          	add	sp,sp,-16

000005a4 <.LBB3>:
  FP_UNPACK_SEMIRAW_S (A, a);
     5a4:	00a6f633          	and	a2,a3,a0

000005a8 <.LVL1>:
     5a8:	01755713          	srl	a4,a0,0x17

000005ac <.LBE3>:
{
     5ac:	00812423          	sw	s0,8(sp)

000005b0 <.LBB4>:
  FP_UNPACK_SEMIRAW_S (A, a);
     5b0:	01f55413          	srl	s0,a0,0x1f

000005b4 <.LBE4>:
     5b4:	00361513          	sll	a0,a2,0x3

000005b8 <.LBB5>:
  FP_UNPACK_SEMIRAW_S (B, b);
     5b8:	0175d613          	srl	a2,a1,0x17

000005bc <.LVL3>:
     5bc:	00b6f6b3          	and	a3,a3,a1

000005c0 <.LBE5>:
{
     5c0:	01212023          	sw	s2,0(sp)

000005c4 <.LBB6>:
  FP_UNPACK_SEMIRAW_S (B, b);
     5c4:	0ff67613          	zext.b	a2,a2

000005c8 <.LBB7>:
  FP_UNPACK_SEMIRAW_S (A, a);
     5c8:	0ff77913          	zext.b	s2,a4

000005cc <.LBB8>:
{
     5cc:	00112623          	sw	ra,12(sp)
     5d0:	00912223          	sw	s1,4(sp)

000005d4 <.LBB9>:
  FP_UNPACK_SEMIRAW_S (B, b);
     5d4:	01f5d593          	srl	a1,a1,0x1f

000005d8 <.LBE9>:
     5d8:	00369793          	sll	a5,a3,0x3

000005dc <.LBB10>:
  FP_ADD_S (R, A, B);
     5dc:	40c906b3          	sub	a3,s2,a2

000005e0 <.LBE10>:
     5e0:	18b41063          	bne	s0,a1,760 <.L2>

000005e4 <.LBB11>:
     5e4:	08d05c63          	blez	a3,67c <.L3>

000005e8 <.LVL8>:
     5e8:	02061663          	bnez	a2,614 <.L4>
     5ec:	02078063          	beqz	a5,60c <.L62>
     5f0:	fff90693          	add	a3,s2,-1
     5f4:	00069863          	bnez	a3,604 <.L6>

000005f8 <.L92>:
     5f8:	00a787b3          	add	a5,a5,a0

000005fc <.LVL11>:
     5fc:	00100913          	li	s2,1

00000600 <.LVL12>:
     600:	04c0006f          	j	64c <.L7>

00000604 <.L6>:
     604:	0ff00713          	li	a4,255
     608:	00e91e63          	bne	s2,a4,624 <.L8>

0000060c <.L62>:
     60c:	00050793          	mv	a5,a0

00000610 <.LVL15>:
     610:	10c0006f          	j	71c <.L36>

00000614 <.L4>:
     614:	0ff00713          	li	a4,255
     618:	fee90ae3          	beq	s2,a4,60c <.L62>
     61c:	04000737          	lui	a4,0x4000
     620:	00e7e7b3          	or	a5,a5,a4

00000624 <.L8>:
     624:	01b00613          	li	a2,27

00000628 <.LVL18>:
     628:	00100713          	li	a4,1
     62c:	00d64e63          	blt	a2,a3,648 <.L9>
     630:	02000613          	li	a2,32
     634:	00d7d733          	srl	a4,a5,a3
     638:	40d606b3          	sub	a3,a2,a3

0000063c <.LVL19>:
     63c:	00d796b3          	sll	a3,a5,a3
     640:	00d036b3          	snez	a3,a3
     644:	00d76733          	or	a4,a4,a3

00000648 <.L9>:
     648:	00a707b3          	add	a5,a4,a0

0000064c <.L7>:
     64c:	00579713          	sll	a4,a5,0x5
     650:	0c075663          	bgez	a4,71c <.L36>

00000654 <.LVL22>:
     654:	00190913          	add	s2,s2,1

00000658 <.LVL23>:
     658:	0ff00713          	li	a4,255
     65c:	2ce90a63          	beq	s2,a4,930 <.L52>
     660:	7e000737          	lui	a4,0x7e000
     664:	0017f693          	and	a3,a5,1

00000668 <.LVL24>:
     668:	fff70713          	add	a4,a4,-1 # 7dffffff <_ebss+0x7dfea10f>
     66c:	0017d793          	srl	a5,a5,0x1

00000670 <.LVL25>:
     670:	00e7f7b3          	and	a5,a5,a4

00000674 <.LVL26>:
     674:	00d7e7b3          	or	a5,a5,a3
     678:	0a40006f          	j	71c <.L36>

0000067c <.L3>:
     67c:	06068663          	beqz	a3,6e8 <.L10>
     680:	41260733          	sub	a4,a2,s2

00000684 <.LVL28>:
     684:	02091063          	bnez	s2,6a4 <.L11>
     688:	0c050863          	beqz	a0,758 <.L44>
     68c:	fff70693          	add	a3,a4,-1

00000690 <.LVL29>:
     690:	f60684e3          	beqz	a3,5f8 <.L92>
     694:	0ff00593          	li	a1,255

00000698 <.LVL30>:
     698:	02b71063          	bne	a4,a1,6b8 <.L13>

0000069c <.L94>:
     69c:	0ff00913          	li	s2,255

000006a0 <.LVL32>:
     6a0:	07c0006f          	j	71c <.L36>

000006a4 <.L11>:
     6a4:	0ff00693          	li	a3,255
     6a8:	fed60ae3          	beq	a2,a3,69c <.L94>
     6ac:	040006b7          	lui	a3,0x4000
     6b0:	00d56533          	or	a0,a0,a3
     6b4:	00070693          	mv	a3,a4

000006b8 <.L13>:
     6b8:	01b00593          	li	a1,27
     6bc:	00100713          	li	a4,1
     6c0:	00d5ce63          	blt	a1,a3,6dc <.L14>
     6c4:	02000713          	li	a4,32
     6c8:	40d70733          	sub	a4,a4,a3
     6cc:	00e51733          	sll	a4,a0,a4
     6d0:	00d555b3          	srl	a1,a0,a3
     6d4:	00e03733          	snez	a4,a4
     6d8:	00e5e733          	or	a4,a1,a4

000006dc <.L14>:
     6dc:	00e787b3          	add	a5,a5,a4

000006e0 <.LVL37>:
     6e0:	00060913          	mv	s2,a2

000006e4 <.LVL38>:
     6e4:	f69ff06f          	j	64c <.L7>

000006e8 <.L10>:
     6e8:	00190713          	add	a4,s2,1
     6ec:	0fe77693          	and	a3,a4,254

000006f0 <.LVL40>:
     6f0:	04069c63          	bnez	a3,748 <.L15>
     6f4:	04091263          	bnez	s2,738 <.L16>

000006f8 <.LVL41>:
     6f8:	02050263          	beqz	a0,71c <.L36>
     6fc:	f00788e3          	beqz	a5,60c <.L62>
     700:	00a787b3          	add	a5,a5,a0

00000704 <.LVL42>:
     704:	00579713          	sll	a4,a5,0x5
     708:	00075a63          	bgez	a4,71c <.L36>
     70c:	fc000737          	lui	a4,0xfc000
     710:	fff70713          	add	a4,a4,-1 # fbffffff <_ebss+0xfbfea10f>
     714:	00e7f7b3          	and	a5,a5,a4

00000718 <.LVL43>:
     718:	00100913          	li	s2,1

0000071c <.L36>:
  FP_PACK_SEMIRAW_S (r, R);
     71c:	0077f713          	and	a4,a5,7
     720:	20070a63          	beqz	a4,934 <.L37>
     724:	00f7f713          	and	a4,a5,15
     728:	00400693          	li	a3,4
     72c:	20d70463          	beq	a4,a3,934 <.L37>
     730:	00478793          	add	a5,a5,4
     734:	2000006f          	j	934 <.L37>

00000738 <.L16>:
  FP_ADD_S (R, A, B);
     738:	f60502e3          	beqz	a0,69c <.L94>

0000073c <.L32>:
     73c:	16079663          	bnez	a5,8a8 <.L64>
     740:	00050793          	mv	a5,a0

00000744 <.LVL48>:
     744:	f59ff06f          	j	69c <.L94>

00000748 <.L15>:
     748:	0ff00693          	li	a3,255
     74c:	1ed70063          	beq	a4,a3,92c <.L51>
     750:	00f507b3          	add	a5,a0,a5

00000754 <.LVL50>:
     754:	0017d793          	srl	a5,a5,0x1

00000758 <.L44>:
     758:	00070913          	mv	s2,a4

0000075c <.LVL52>:
     75c:	fc1ff06f          	j	71c <.L36>

00000760 <.L2>:
     760:	06d05e63          	blez	a3,7dc <.L17>

00000764 <.LVL54>:
     764:	06061263          	bnez	a2,7c8 <.L18>
     768:	ea0782e3          	beqz	a5,60c <.L62>
     76c:	fff90693          	add	a3,s2,-1

00000770 <.LVL55>:
     770:	00069863          	bnez	a3,780 <.L19>
     774:	40f507b3          	sub	a5,a0,a5

00000778 <.L93>:
     778:	00100913          	li	s2,1

0000077c <.LVL57>:
     77c:	0340006f          	j	7b0 <.L20>

00000780 <.L19>:
     780:	0ff00713          	li	a4,255
     784:	e8e904e3          	beq	s2,a4,60c <.L62>

00000788 <.L21>:
     788:	01b00613          	li	a2,27

0000078c <.LVL60>:
     78c:	00100713          	li	a4,1
     790:	00d64e63          	blt	a2,a3,7ac <.L22>
     794:	02000613          	li	a2,32
     798:	00d7d733          	srl	a4,a5,a3
     79c:	40d606b3          	sub	a3,a2,a3

000007a0 <.LVL61>:
     7a0:	00d796b3          	sll	a3,a5,a3
     7a4:	00d036b3          	snez	a3,a3
     7a8:	00d76733          	or	a4,a4,a3

000007ac <.L22>:
     7ac:	40e507b3          	sub	a5,a0,a4

000007b0 <.L20>:
     7b0:	00579713          	sll	a4,a5,0x5
     7b4:	f60754e3          	bgez	a4,71c <.L36>

000007b8 <.LBB13>:
     7b8:	040004b7          	lui	s1,0x4000
     7bc:	fff48493          	add	s1,s1,-1 # 3ffffff <_ebss+0x3fea10f>
     7c0:	0097f4b3          	and	s1,a5,s1

000007c4 <.LVL64>:
     7c4:	1080006f          	j	8cc <.L34>

000007c8 <.L18>:
     7c8:	0ff00713          	li	a4,255
     7cc:	e4e900e3          	beq	s2,a4,60c <.L62>
     7d0:	04000737          	lui	a4,0x4000
     7d4:	00e7e7b3          	or	a5,a5,a4
     7d8:	fb1ff06f          	j	788 <.L21>

000007dc <.L17>:
     7dc:	06068e63          	beqz	a3,858 <.L23>
     7e0:	41260733          	sub	a4,a2,s2

000007e4 <.LVL68>:
     7e4:	02091663          	bnez	s2,810 <.L24>
     7e8:	1a050e63          	beqz	a0,9a4 <.L57>
     7ec:	fff70693          	add	a3,a4,-1 # 3ffffff <_ebss+0x3fea10f>

000007f0 <.LVL69>:
     7f0:	00069863          	bnez	a3,800 <.L25>
     7f4:	40a787b3          	sub	a5,a5,a0

000007f8 <.LVL70>:
     7f8:	00058413          	mv	s0,a1

000007fc <.LVL71>:
     7fc:	f7dff06f          	j	778 <.L93>

00000800 <.L25>:
     800:	0ff00813          	li	a6,255
     804:	03071063          	bne	a4,a6,824 <.L26>

00000808 <.L59>:
     808:	0ff00913          	li	s2,255

0000080c <.LVL74>:
     80c:	19c0006f          	j	9a8 <.L61>

00000810 <.L24>:
     810:	0ff00693          	li	a3,255
     814:	fed60ae3          	beq	a2,a3,808 <.L59>
     818:	040006b7          	lui	a3,0x4000
     81c:	00d56533          	or	a0,a0,a3
     820:	00070693          	mv	a3,a4

00000824 <.L26>:
     824:	01b00813          	li	a6,27
     828:	00100713          	li	a4,1
     82c:	00d84e63          	blt	a6,a3,848 <.L27>
     830:	02000713          	li	a4,32
     834:	40d70733          	sub	a4,a4,a3
     838:	00e51733          	sll	a4,a0,a4
     83c:	00d55833          	srl	a6,a0,a3
     840:	00e03733          	snez	a4,a4
     844:	00e86733          	or	a4,a6,a4

00000848 <.L27>:
     848:	40e787b3          	sub	a5,a5,a4

0000084c <.LVL79>:
     84c:	00060913          	mv	s2,a2

00000850 <.LVL80>:
     850:	00058413          	mv	s0,a1

00000854 <.LVL81>:
     854:	f5dff06f          	j	7b0 <.L20>

00000858 <.L23>:
     858:	00190713          	add	a4,s2,1
     85c:	0fe77713          	and	a4,a4,254
     860:	04071c63          	bnez	a4,8b8 <.L28>
     864:	02091c63          	bnez	s2,89c <.L29>

00000868 <.LVL83>:
     868:	00051863          	bnez	a0,878 <.L30>

0000086c <.LVL84>:
     86c:	12079e63          	bnez	a5,9a8 <.L61>

00000870 <.L95>:
     870:	00000413          	li	s0,0

00000874 <.LVL86>:
     874:	0c00006f          	j	934 <.L37>

00000878 <.L30>:
     878:	d8078ae3          	beqz	a5,60c <.L62>
     87c:	40f50733          	sub	a4,a0,a5

00000880 <.LVL88>:
     880:	00571693          	sll	a3,a4,0x5
     884:	40a787b3          	sub	a5,a5,a0

00000888 <.LVL89>:
     888:	1206c063          	bltz	a3,9a8 <.L61>
     88c:	00070793          	mv	a5,a4
     890:	e80716e3          	bnez	a4,71c <.L36>
     894:	00000793          	li	a5,0
     898:	fd9ff06f          	j	870 <.L95>

0000089c <.L29>:
     89c:	ea0510e3          	bnez	a0,73c <.L32>
     8a0:	00058413          	mv	s0,a1

000008a4 <.LVL91>:
     8a4:	de079ce3          	bnez	a5,69c <.L94>

000008a8 <.L64>:
     8a8:	00000413          	li	s0,0
     8ac:	020007b7          	lui	a5,0x2000

000008b0 <.LVL93>:
     8b0:	0ff00913          	li	s2,255

000008b4 <.LVL94>:
     8b4:	0800006f          	j	934 <.L37>

000008b8 <.L28>:
     8b8:	40f504b3          	sub	s1,a0,a5

000008bc <.LVL96>:
     8bc:	00549713          	sll	a4,s1,0x5
     8c0:	04075463          	bgez	a4,908 <.L33>
     8c4:	40a784b3          	sub	s1,a5,a0

000008c8 <.LVL97>:
     8c8:	00058413          	mv	s0,a1

000008cc <.L34>:
     8cc:	00048513          	mv	a0,s1
     8d0:	545000ef          	jal	1614 <__clzsi2>

000008d4 <.LVL99>:
     8d4:	ffb50513          	add	a0,a0,-5
     8d8:	00a494b3          	sll	s1,s1,a0
     8dc:	03254e63          	blt	a0,s2,918 <.L35>
     8e0:	41250533          	sub	a0,a0,s2

000008e4 <.LVL102>:
     8e4:	00150513          	add	a0,a0,1

000008e8 <.LVL103>:
     8e8:	02000713          	li	a4,32
     8ec:	40a70733          	sub	a4,a4,a0
     8f0:	00a4d7b3          	srl	a5,s1,a0
     8f4:	00e494b3          	sll	s1,s1,a4

000008f8 <.LVL104>:
     8f8:	009034b3          	snez	s1,s1
     8fc:	0097e7b3          	or	a5,a5,s1

00000900 <.LVL105>:
     900:	00000913          	li	s2,0
     904:	e19ff06f          	j	71c <.L36>

00000908 <.L33>:
     908:	fc0492e3          	bnez	s1,8cc <.L34>
     90c:	00000793          	li	a5,0

00000910 <.LVL107>:
     910:	00000913          	li	s2,0

00000914 <.LVL108>:
     914:	f5dff06f          	j	870 <.L95>

00000918 <.L35>:
     918:	fc0007b7          	lui	a5,0xfc000
     91c:	fff78793          	add	a5,a5,-1 # fbffffff <_ebss+0xfbfea10f>
     920:	40a90933          	sub	s2,s2,a0
     924:	00f4f7b3          	and	a5,s1,a5

00000928 <.LVL111>:
     928:	df5ff06f          	j	71c <.L36>

0000092c <.L51>:
     92c:	0ff00913          	li	s2,255

00000930 <.L52>:
     930:	00000793          	li	a5,0

00000934 <.L37>:
  FP_PACK_SEMIRAW_S (r, R);
     934:	00579713          	sll	a4,a5,0x5
     938:	00075e63          	bgez	a4,954 <.L38>

0000093c <.LVL115>:
     93c:	00190913          	add	s2,s2,1

00000940 <.LVL116>:
     940:	0ff00713          	li	a4,255
     944:	06e90663          	beq	s2,a4,9b0 <.L67>
     948:	fc000737          	lui	a4,0xfc000
     94c:	fff70713          	add	a4,a4,-1 # fbffffff <_ebss+0xfbfea10f>
     950:	00e7f7b3          	and	a5,a5,a4

00000954 <.L38>:
     954:	0ff00713          	li	a4,255
     958:	0037d793          	srl	a5,a5,0x3
     95c:	00e91863          	bne	s2,a4,96c <.L39>
     960:	00078663          	beqz	a5,96c <.L39>
     964:	004007b7          	lui	a5,0x400

00000968 <.LVL119>:
     968:	00000413          	li	s0,0

0000096c <.L39>:
  FP_HANDLE_EXCEPTIONS;

  return r;
}
     96c:	00c12083          	lw	ra,12(sp)

00000970 <.LBB28>:
  FP_PACK_SEMIRAW_S (r, R);
     970:	01791713          	sll	a4,s2,0x17
     974:	01f41513          	sll	a0,s0,0x1f
     978:	7f8006b7          	lui	a3,0x7f800

0000097c <.LBE28>:
}
     97c:	00812403          	lw	s0,8(sp)

00000980 <.LBB29>:
  FP_PACK_SEMIRAW_S (r, R);
     980:	00979793          	sll	a5,a5,0x9

00000984 <.LVL122>:
     984:	00d77733          	and	a4,a4,a3
     988:	0097d793          	srl	a5,a5,0x9
     98c:	00f767b3          	or	a5,a4,a5

00000990 <.LBE29>:
}
     990:	00412483          	lw	s1,4(sp)
     994:	00012903          	lw	s2,0(sp)

00000998 <.LVL124>:
     998:	00a7e533          	or	a0,a5,a0

0000099c <.LVL125>:
     99c:	01010113          	add	sp,sp,16
     9a0:	00008067          	ret

000009a4 <.L57>:
  FP_ADD_S (R, A, B);
     9a4:	00070913          	mv	s2,a4

000009a8 <.L61>:
     9a8:	00058413          	mv	s0,a1

000009ac <.LVL128>:
     9ac:	d71ff06f          	j	71c <.L36>

000009b0 <.L67>:
     9b0:	00000793          	li	a5,0

000009b4 <.LVL130>:
     9b4:	fa1ff06f          	j	954 <.L38>

000009b8 <__divsf3>:
#include "soft-fp.h"
#include "single.h"

SFtype
__divsf3 (SFtype a, SFtype b)
{
     9b8:	fe010113          	add	sp,sp,-32
     9bc:	00912a23          	sw	s1,20(sp)
     9c0:	01755493          	srl	s1,a0,0x17
     9c4:	01212823          	sw	s2,16(sp)
     9c8:	01312623          	sw	s3,12(sp)
     9cc:	01412423          	sw	s4,8(sp)

000009d0 <.LBB3>:
  FP_DECL_S (B);
  FP_DECL_S (R);
  SFtype r;

  FP_INIT_ROUNDMODE;
  FP_UNPACK_S (A, a);
     9d0:	00951993          	sll	s3,a0,0x9

000009d4 <.LBE3>:
{
     9d4:	00112e23          	sw	ra,28(sp)
     9d8:	00812c23          	sw	s0,24(sp)
     9dc:	01512223          	sw	s5,4(sp)
     9e0:	0ff4f493          	zext.b	s1,s1
     9e4:	00058a13          	mv	s4,a1

000009e8 <.LBB4>:
  FP_UNPACK_S (A, a);
     9e8:	0099d993          	srl	s3,s3,0x9

000009ec <.LVL1>:
     9ec:	01f55913          	srl	s2,a0,0x1f

000009f0 <.LBE4>:
     9f0:	08048663          	beqz	s1,a7c <.L2>
     9f4:	0ff00793          	li	a5,255
     9f8:	0af48263          	beq	s1,a5,a9c <.L3>

000009fc <.LVL3>:
     9fc:	00399993          	sll	s3,s3,0x3

00000a00 <.LVL4>:
     a00:	040007b7          	lui	a5,0x4000
     a04:	00f9e9b3          	or	s3,s3,a5

00000a08 <.LVL5>:
     a08:	f8148493          	add	s1,s1,-127

00000a0c <.L51>:
     a0c:	00000a93          	li	s5,0

00000a10 <.L4>:
  FP_UNPACK_S (B, b);
     a10:	017a5793          	srl	a5,s4,0x17
     a14:	009a1413          	sll	s0,s4,0x9
     a18:	0ff7f793          	zext.b	a5,a5
     a1c:	00945413          	srl	s0,s0,0x9

00000a20 <.LVL8>:
     a20:	01fa5a13          	srl	s4,s4,0x1f

00000a24 <.LBE6>:
     a24:	08078c63          	beqz	a5,abc <.L5>
     a28:	0ff00713          	li	a4,255
     a2c:	0ae78863          	beq	a5,a4,adc <.L6>

00000a30 <.LVL10>:
     a30:	00341413          	sll	s0,s0,0x3

00000a34 <.LVL11>:
     a34:	04000737          	lui	a4,0x4000
     a38:	00e46433          	or	s0,s0,a4

00000a3c <.LVL12>:
     a3c:	f8178793          	add	a5,a5,-127 # 3ffff81 <_ebss+0x3fea091>

00000a40 <.L52>:
     a40:	00000713          	li	a4,0

00000a44 <.L7>:
  FP_DIV_S (R, A, B);
     a44:	40f484b3          	sub	s1,s1,a5

00000a48 <.LVL15>:
     a48:	002a9793          	sll	a5,s5,0x2

00000a4c <.LVL16>:
     a4c:	00e7e7b3          	or	a5,a5,a4
     a50:	fff78793          	add	a5,a5,-1
     a54:	00e00613          	li	a2,14
     a58:	014946b3          	xor	a3,s2,s4

00000a5c <.LVL17>:
     a5c:	0af66063          	bltu	a2,a5,afc <.L8>
     a60:	00010617          	auipc	a2,0x10
     a64:	8c060613          	add	a2,a2,-1856 # 10320 <.L10>
     a68:	00279793          	sll	a5,a5,0x2
     a6c:	00c787b3          	add	a5,a5,a2
     a70:	0007a783          	lw	a5,0(a5)
     a74:	00c787b3          	add	a5,a5,a2
     a78:	00078067          	jr	a5

00000a7c <.L2>:
  FP_UNPACK_S (A, a);
     a7c:	02098a63          	beqz	s3,ab0 <.L28>

00000a80 <.LBB8>:
     a80:	00098513          	mv	a0,s3

00000a84 <.LVL19>:
     a84:	391000ef          	jal	1614 <__clzsi2>

00000a88 <.LVL20>:
     a88:	ffb50793          	add	a5,a0,-5
     a8c:	f8a00493          	li	s1,-118

00000a90 <.LVL21>:
     a90:	00f999b3          	sll	s3,s3,a5
     a94:	40a484b3          	sub	s1,s1,a0
     a98:	f75ff06f          	j	a0c <.L51>

00000a9c <.L3>:
     a9c:	0ff00493          	li	s1,255

00000aa0 <.LBE9>:
     aa0:	00200a93          	li	s5,2
     aa4:	f60986e3          	beqz	s3,a10 <.L4>
     aa8:	00300a93          	li	s5,3
     aac:	f65ff06f          	j	a10 <.L4>

00000ab0 <.L28>:
     ab0:	00000493          	li	s1,0

00000ab4 <.LBE10>:
     ab4:	00100a93          	li	s5,1
     ab8:	f59ff06f          	j	a10 <.L4>

00000abc <.L5>:
  FP_UNPACK_S (B, b);
     abc:	02040a63          	beqz	s0,af0 <.L30>

00000ac0 <.LBB11>:
     ac0:	00040513          	mv	a0,s0
     ac4:	351000ef          	jal	1614 <__clzsi2>

00000ac8 <.LVL28>:
     ac8:	ffb50793          	add	a5,a0,-5
     acc:	00f41433          	sll	s0,s0,a5
     ad0:	f8a00793          	li	a5,-118
     ad4:	40a787b3          	sub	a5,a5,a0
     ad8:	f69ff06f          	j	a40 <.L52>

00000adc <.L6>:
     adc:	0ff00793          	li	a5,255

00000ae0 <.LBE12>:
     ae0:	00200713          	li	a4,2
     ae4:	f60400e3          	beqz	s0,a44 <.L7>
     ae8:	00300713          	li	a4,3
     aec:	f59ff06f          	j	a44 <.L7>

00000af0 <.L30>:
     af0:	00000793          	li	a5,0

00000af4 <.LBE13>:
     af4:	00100713          	li	a4,1
     af8:	f4dff06f          	j	a44 <.L7>

00000afc <.L8>:
  FP_DIV_S (R, A, B);
     afc:	00541613          	sll	a2,s0,0x5

00000b00 <.LVL35>:
     b00:	1289f263          	bgeu	s3,s0,c24 <.L15>
     b04:	fff48493          	add	s1,s1,-1

00000b08 <.LVL36>:
     b08:	00000793          	li	a5,0

00000b0c <.L16>:
     b0c:	01065593          	srl	a1,a2,0x10

00000b10 <.LVL38>:
     b10:	02b9d833          	divu	a6,s3,a1
     b14:	00010737          	lui	a4,0x10

00000b18 <.LVL39>:
     b18:	fe070713          	add	a4,a4,-32 # ffe0 <.LBB202+0x8>
     b1c:	00e67733          	and	a4,a2,a4

00000b20 <.LVL40>:
     b20:	0107d793          	srl	a5,a5,0x10

00000b24 <.LVL41>:
     b24:	02b9f9b3          	remu	s3,s3,a1

00000b28 <.LVL42>:
     b28:	00080413          	mv	s0,a6

00000b2c <.LVL43>:
     b2c:	03070533          	mul	a0,a4,a6

00000b30 <.LVL44>:
     b30:	01099993          	sll	s3,s3,0x10

00000b34 <.LVL45>:
     b34:	0137e7b3          	or	a5,a5,s3

00000b38 <.LVL46>:
     b38:	00a7fe63          	bgeu	a5,a0,b54 <.L17>
     b3c:	00f607b3          	add	a5,a2,a5

00000b40 <.LVL47>:
     b40:	fff80413          	add	s0,a6,-1

00000b44 <.LVL48>:
     b44:	00c7e863          	bltu	a5,a2,b54 <.L17>
     b48:	00a7f663          	bgeu	a5,a0,b54 <.L17>
     b4c:	ffe80413          	add	s0,a6,-2
     b50:	00c787b3          	add	a5,a5,a2

00000b54 <.L17>:
     b54:	40a787b3          	sub	a5,a5,a0

00000b58 <.LVL51>:
     b58:	02b7d533          	divu	a0,a5,a1

00000b5c <.LVL52>:
     b5c:	02b7f7b3          	remu	a5,a5,a1

00000b60 <.LVL53>:
     b60:	00050593          	mv	a1,a0

00000b64 <.LVL54>:
     b64:	02a70733          	mul	a4,a4,a0

00000b68 <.LVL55>:
     b68:	01079793          	sll	a5,a5,0x10
     b6c:	02e7f263          	bgeu	a5,a4,b90 <.L20>
     b70:	00c78833          	add	a6,a5,a2
     b74:	00f838b3          	sltu	a7,a6,a5
     b78:	fff50593          	add	a1,a0,-1

00000b7c <.LVL57>:
     b7c:	00080793          	mv	a5,a6
     b80:	00089863          	bnez	a7,b90 <.L20>
     b84:	00e87663          	bgeu	a6,a4,b90 <.L20>
     b88:	ffe50593          	add	a1,a0,-2
     b8c:	00c807b3          	add	a5,a6,a2

00000b90 <.L20>:
     b90:	01041413          	sll	s0,s0,0x10

00000b94 <.LBE16>:
     b94:	40e787b3          	sub	a5,a5,a4

00000b98 <.LBB17>:
     b98:	00b46433          	or	s0,s0,a1

00000b9c <.LBE17>:
     b9c:	00f037b3          	snez	a5,a5

00000ba0 <.LVL64>:
     ba0:	00f46433          	or	s0,s0,a5

00000ba4 <.L23>:
  FP_PACK_S (r, R);
     ba4:	07f48713          	add	a4,s1,127

00000ba8 <.LVL66>:
     ba8:	0ce05863          	blez	a4,c78 <.L24>
     bac:	00747793          	and	a5,s0,7
     bb0:	00078a63          	beqz	a5,bc4 <.L25>
     bb4:	00f47793          	and	a5,s0,15
     bb8:	00400613          	li	a2,4
     bbc:	00c78463          	beq	a5,a2,bc4 <.L25>
     bc0:	00440413          	add	s0,s0,4

00000bc4 <.L25>:
     bc4:	00441793          	sll	a5,s0,0x4
     bc8:	0007da63          	bgez	a5,bdc <.L26>
     bcc:	f80007b7          	lui	a5,0xf8000
     bd0:	fff78793          	add	a5,a5,-1 # f7ffffff <_ebss+0xf7fea10f>
     bd4:	00f47433          	and	s0,s0,a5
     bd8:	08048713          	add	a4,s1,128

00000bdc <.L26>:
     bdc:	0fe00793          	li	a5,254
     be0:	06e7ca63          	blt	a5,a4,c54 <.L13>
     be4:	00345793          	srl	a5,s0,0x3

00000be8 <.L14>:
  FP_HANDLE_EXCEPTIONS;

  return r;
}
     be8:	01c12083          	lw	ra,28(sp)
     bec:	01812403          	lw	s0,24(sp)

00000bf0 <.LBB19>:
  FP_PACK_S (r, R);
     bf0:	00979793          	sll	a5,a5,0x9

00000bf4 <.LVL71>:
     bf4:	01771713          	sll	a4,a4,0x17

00000bf8 <.LVL72>:
     bf8:	0097d793          	srl	a5,a5,0x9
     bfc:	00f76733          	or	a4,a4,a5
     c00:	01f69513          	sll	a0,a3,0x1f

00000c04 <.LBE19>:
}
     c04:	01412483          	lw	s1,20(sp)
     c08:	01012903          	lw	s2,16(sp)

00000c0c <.LVL74>:
     c0c:	00c12983          	lw	s3,12(sp)
     c10:	00812a03          	lw	s4,8(sp)

00000c14 <.LVL75>:
     c14:	00412a83          	lw	s5,4(sp)

00000c18 <.LVL76>:
     c18:	00a76533          	or	a0,a4,a0

00000c1c <.LVL77>:
     c1c:	02010113          	add	sp,sp,32
     c20:	00008067          	ret

00000c24 <.L15>:
  FP_DIV_S (R, A, B);
     c24:	01f99793          	sll	a5,s3,0x1f

00000c28 <.LVL79>:
     c28:	0019d993          	srl	s3,s3,0x1

00000c2c <.LVL80>:
     c2c:	ee1ff06f          	j	b0c <.L16>

00000c30 <.L11>:
  FP_UNPACK_S (A, a);
     c30:	00090693          	mv	a3,s2

00000c34 <.LBE21>:
  FP_DIV_S (R, A, B);
     c34:	00098413          	mv	s0,s3

00000c38 <.LVL83>:
     c38:	000a8713          	mv	a4,s5

00000c3c <.L9>:
  FP_PACK_S (r, R);
     c3c:	00300793          	li	a5,3
     c40:	08f70663          	beq	a4,a5,ccc <.L36>
     c44:	00100793          	li	a5,1
     c48:	08f70a63          	beq	a4,a5,cdc <.L38>
     c4c:	00200793          	li	a5,2
     c50:	f4f71ae3          	bne	a4,a5,ba4 <.L23>

00000c54 <.L13>:
     c54:	00000793          	li	a5,0
     c58:	0ff00713          	li	a4,255
     c5c:	f8dff06f          	j	be8 <.L14>

00000c60 <.L12>:
  FP_UNPACK_S (B, b);
     c60:	000a0693          	mv	a3,s4

00000c64 <.LBE22>:
  FP_DIV_S (R, A, B);
     c64:	fd9ff06f          	j	c3c <.L9>

00000c68 <.L33>:
     c68:	00400437          	lui	s0,0x400

00000c6c <.LVL89>:
     c6c:	00000693          	li	a3,0

00000c70 <.LVL90>:
     c70:	00300713          	li	a4,3

00000c74 <.LVL91>:
     c74:	fc9ff06f          	j	c3c <.L9>

00000c78 <.L24>:
  FP_PACK_S (r, R);
     c78:	00100793          	li	a5,1
     c7c:	40e787b3          	sub	a5,a5,a4

00000c80 <.LVL93>:
     c80:	01b00713          	li	a4,27
     c84:	04f74c63          	blt	a4,a5,cdc <.L38>
     c88:	09e48493          	add	s1,s1,158
     c8c:	00f457b3          	srl	a5,s0,a5

00000c90 <.LVL94>:
     c90:	00941433          	sll	s0,s0,s1

00000c94 <.LVL95>:
     c94:	00803433          	snez	s0,s0
     c98:	0087e7b3          	or	a5,a5,s0

00000c9c <.LVL96>:
     c9c:	0077f713          	and	a4,a5,7
     ca0:	00070a63          	beqz	a4,cb4 <.L27>
     ca4:	00f7f713          	and	a4,a5,15
     ca8:	00400613          	li	a2,4
     cac:	00c70463          	beq	a4,a2,cb4 <.L27>
     cb0:	00478793          	add	a5,a5,4

00000cb4 <.L27>:
     cb4:	00579713          	sll	a4,a5,0x5
     cb8:	0037d793          	srl	a5,a5,0x3

00000cbc <.LVL98>:
     cbc:	02075263          	bgez	a4,ce0 <.L53>
     cc0:	00000793          	li	a5,0
     cc4:	00100713          	li	a4,1

00000cc8 <.LVL99>:
     cc8:	f21ff06f          	j	be8 <.L14>

00000ccc <.L36>:
     ccc:	004007b7          	lui	a5,0x400
     cd0:	0ff00713          	li	a4,255

00000cd4 <.LVL101>:
     cd4:	00000693          	li	a3,0

00000cd8 <.LVL102>:
     cd8:	f11ff06f          	j	be8 <.L14>

00000cdc <.L38>:
     cdc:	00000793          	li	a5,0

00000ce0 <.L53>:
     ce0:	00000713          	li	a4,0
     ce4:	f05ff06f          	j	be8 <.L14>

00000ce8 <__mulsf3>:
#include "soft-fp.h"
#include "single.h"

SFtype
__mulsf3 (SFtype a, SFtype b)
{
     ce8:	fe010113          	add	sp,sp,-32
     cec:	01212823          	sw	s2,16(sp)
     cf0:	01755913          	srl	s2,a0,0x17
     cf4:	00912a23          	sw	s1,20(sp)
     cf8:	01312623          	sw	s3,12(sp)
     cfc:	01512223          	sw	s5,4(sp)

00000d00 <.LBB3>:
  FP_DECL_S (B);
  FP_DECL_S (R);
  SFtype r;

  FP_INIT_ROUNDMODE;
  FP_UNPACK_S (A, a);
     d00:	00951493          	sll	s1,a0,0x9

00000d04 <.LBE3>:
{
     d04:	00112e23          	sw	ra,28(sp)
     d08:	00812c23          	sw	s0,24(sp)
     d0c:	01412423          	sw	s4,8(sp)
     d10:	0ff97913          	zext.b	s2,s2
     d14:	00058a93          	mv	s5,a1

00000d18 <.LBB4>:
  FP_UNPACK_S (A, a);
     d18:	0094d493          	srl	s1,s1,0x9

00000d1c <.LVL1>:
     d1c:	01f55993          	srl	s3,a0,0x1f

00000d20 <.LBE4>:
     d20:	10090863          	beqz	s2,e30 <.L2>
     d24:	0ff00793          	li	a5,255
     d28:	12f90463          	beq	s2,a5,e50 <.L3>

00000d2c <.LVL3>:
     d2c:	00349493          	sll	s1,s1,0x3

00000d30 <.LVL4>:
     d30:	040007b7          	lui	a5,0x4000
     d34:	00f4e4b3          	or	s1,s1,a5

00000d38 <.LVL5>:
     d38:	f8190913          	add	s2,s2,-127

00000d3c <.L50>:
     d3c:	00000a13          	li	s4,0

00000d40 <.L4>:
  FP_UNPACK_S (B, b);
     d40:	017ad793          	srl	a5,s5,0x17
     d44:	009a9413          	sll	s0,s5,0x9
     d48:	0ff7f793          	zext.b	a5,a5
     d4c:	00945413          	srl	s0,s0,0x9

00000d50 <.LVL8>:
     d50:	01fada93          	srl	s5,s5,0x1f

00000d54 <.LBE6>:
     d54:	10078e63          	beqz	a5,e70 <.L5>
     d58:	0ff00713          	li	a4,255
     d5c:	12e78a63          	beq	a5,a4,e90 <.L6>

00000d60 <.LVL10>:
     d60:	00341413          	sll	s0,s0,0x3

00000d64 <.LVL11>:
     d64:	04000737          	lui	a4,0x4000
     d68:	00e46433          	or	s0,s0,a4

00000d6c <.LVL12>:
     d6c:	f8178793          	add	a5,a5,-127 # 3ffff81 <_ebss+0x3fea091>

00000d70 <.L51>:
     d70:	00000713          	li	a4,0

00000d74 <.L7>:
  FP_MUL_S (R, A, B);
     d74:	00f90933          	add	s2,s2,a5

00000d78 <.LVL15>:
     d78:	002a1793          	sll	a5,s4,0x2

00000d7c <.LVL16>:
     d7c:	00e7e7b3          	or	a5,a5,a4
     d80:	00a00613          	li	a2,10
     d84:	00190693          	add	a3,s2,1

00000d88 <.LVL17>:
     d88:	1ef64263          	blt	a2,a5,f6c <.L8>
     d8c:	00200613          	li	a2,2
     d90:	0159c9b3          	xor	s3,s3,s5

00000d94 <.LVL18>:
     d94:	10f64e63          	blt	a2,a5,eb0 <.L9>
     d98:	fff78793          	add	a5,a5,-1
     d9c:	00100613          	li	a2,1
     da0:	12f67a63          	bgeu	a2,a5,ed4 <.L11>

00000da4 <.L10>:
     da4:	00010837          	lui	a6,0x10
     da8:	fff80513          	add	a0,a6,-1 # ffff <.LVL314+0x7>
     dac:	0104d613          	srl	a2,s1,0x10

00000db0 <.LVL20>:
     db0:	01045793          	srl	a5,s0,0x10

00000db4 <.LVL21>:
     db4:	00a4f4b3          	and	s1,s1,a0

00000db8 <.LVL22>:
     db8:	00a47433          	and	s0,s0,a0

00000dbc <.LVL23>:
     dbc:	029405b3          	mul	a1,s0,s1

00000dc0 <.LVL24>:
     dc0:	02860433          	mul	s0,a2,s0

00000dc4 <.LVL25>:
     dc4:	02f60633          	mul	a2,a2,a5

00000dc8 <.LVL26>:
     dc8:	029787b3          	mul	a5,a5,s1

00000dcc <.LVL27>:
     dcc:	00878733          	add	a4,a5,s0

00000dd0 <.LVL28>:
     dd0:	0105d793          	srl	a5,a1,0x10

00000dd4 <.LVL29>:
     dd4:	00e787b3          	add	a5,a5,a4

00000dd8 <.LVL30>:
     dd8:	0087f463          	bgeu	a5,s0,de0 <.L15>
     ddc:	01060633          	add	a2,a2,a6

00000de0 <.L15>:
     de0:	00a7f733          	and	a4,a5,a0
     de4:	01071713          	sll	a4,a4,0x10
     de8:	00a5f5b3          	and	a1,a1,a0

00000dec <.LVL32>:
     dec:	00b70733          	add	a4,a4,a1

00000df0 <.LBB11>:
     df0:	0107d793          	srl	a5,a5,0x10

00000df4 <.LBE11>:
     df4:	00671413          	sll	s0,a4,0x6

00000df8 <.LBB13>:
     df8:	00c787b3          	add	a5,a5,a2

00000dfc <.LBE13>:
     dfc:	01a75713          	srl	a4,a4,0x1a

00000e00 <.LVL37>:
     e00:	00679793          	sll	a5,a5,0x6

00000e04 <.LVL38>:
     e04:	00803433          	snez	s0,s0
     e08:	00e46433          	or	s0,s0,a4

00000e0c <.LBE8>:
     e0c:	00479713          	sll	a4,a5,0x4

00000e10 <.LBB16>:
     e10:	0087e433          	or	s0,a5,s0

00000e14 <.LBE16>:
     e14:	00075a63          	bgez	a4,e28 <.L16>
     e18:	00145793          	srl	a5,s0,0x1
     e1c:	00147413          	and	s0,s0,1

00000e20 <.LVL40>:
     e20:	0087e433          	or	s0,a5,s0

00000e24 <.LVL41>:
     e24:	00068913          	mv	s2,a3

00000e28 <.L16>:
     e28:	00090693          	mv	a3,s2
     e2c:	0c00006f          	j	eec <.L22>

00000e30 <.L2>:
  FP_UNPACK_S (A, a);
     e30:	02048a63          	beqz	s1,e64 <.L23>

00000e34 <.LBB17>:
     e34:	00048513          	mv	a0,s1

00000e38 <.LVL44>:
     e38:	7dc000ef          	jal	1614 <__clzsi2>

00000e3c <.LVL45>:
     e3c:	ffb50793          	add	a5,a0,-5
     e40:	f8a00913          	li	s2,-118

00000e44 <.LVL46>:
     e44:	00f494b3          	sll	s1,s1,a5
     e48:	40a90933          	sub	s2,s2,a0
     e4c:	ef1ff06f          	j	d3c <.L50>

00000e50 <.L3>:
     e50:	0ff00913          	li	s2,255

00000e54 <.LBE18>:
     e54:	00200a13          	li	s4,2
     e58:	ee0484e3          	beqz	s1,d40 <.L4>
     e5c:	00300a13          	li	s4,3
     e60:	ee1ff06f          	j	d40 <.L4>

00000e64 <.L23>:
     e64:	00000913          	li	s2,0

00000e68 <.LBE19>:
     e68:	00100a13          	li	s4,1
     e6c:	ed5ff06f          	j	d40 <.L4>

00000e70 <.L5>:
  FP_UNPACK_S (B, b);
     e70:	02040a63          	beqz	s0,ea4 <.L25>

00000e74 <.LBB20>:
     e74:	00040513          	mv	a0,s0
     e78:	79c000ef          	jal	1614 <__clzsi2>

00000e7c <.LVL53>:
     e7c:	ffb50793          	add	a5,a0,-5
     e80:	00f41433          	sll	s0,s0,a5
     e84:	f8a00793          	li	a5,-118
     e88:	40a787b3          	sub	a5,a5,a0
     e8c:	ee5ff06f          	j	d70 <.L51>

00000e90 <.L6>:
     e90:	0ff00793          	li	a5,255

00000e94 <.LBE21>:
     e94:	00200713          	li	a4,2
     e98:	ec040ee3          	beqz	s0,d74 <.L7>
     e9c:	00300713          	li	a4,3
     ea0:	ed5ff06f          	j	d74 <.L7>

00000ea4 <.L25>:
     ea4:	00000793          	li	a5,0

00000ea8 <.LBE22>:
     ea8:	00100713          	li	a4,1
     eac:	ec9ff06f          	j	d74 <.L7>

00000eb0 <.L9>:
     eb0:	00100613          	li	a2,1
     eb4:	00f617b3          	sll	a5,a2,a5
  FP_MUL_S (R, A, B);
     eb8:	5307f613          	and	a2,a5,1328
     ebc:	0c061063          	bnez	a2,f7c <.L27>
     ec0:	2407f613          	and	a2,a5,576
     ec4:	12061263          	bnez	a2,fe8 <.L30>
     ec8:	0887f793          	and	a5,a5,136
     ecc:	ec078ce3          	beqz	a5,da4 <.L10>

00000ed0 <.L13>:
  FP_UNPACK_S (B, b);
     ed0:	000a8993          	mv	s3,s5

00000ed4 <.L11>:
  FP_PACK_S (r, R);
     ed4:	00200793          	li	a5,2
     ed8:	10f70263          	beq	a4,a5,fdc <.L17>
     edc:	00300793          	li	a5,3
     ee0:	10f70463          	beq	a4,a5,fe8 <.L30>
     ee4:	00100793          	li	a5,1
     ee8:	10f70863          	beq	a4,a5,ff8 <.L32>

00000eec <.L22>:
     eec:	07f68713          	add	a4,a3,127 # 7f80007f <_ebss+0x7f7ea18f>

00000ef0 <.LVL62>:
     ef0:	08e05c63          	blez	a4,f88 <.L18>
     ef4:	00747793          	and	a5,s0,7
     ef8:	00078a63          	beqz	a5,f0c <.L19>
     efc:	00f47793          	and	a5,s0,15
     f00:	00400613          	li	a2,4
     f04:	00c78463          	beq	a5,a2,f0c <.L19>
     f08:	00440413          	add	s0,s0,4 # 400004 <_ebss+0x3ea114>

00000f0c <.L19>:
     f0c:	00441793          	sll	a5,s0,0x4
     f10:	0007da63          	bgez	a5,f24 <.L20>
     f14:	f80007b7          	lui	a5,0xf8000
     f18:	fff78793          	add	a5,a5,-1 # f7ffffff <_ebss+0xf7fea10f>
     f1c:	00f47433          	and	s0,s0,a5
     f20:	08068713          	add	a4,a3,128

00000f24 <.L20>:
     f24:	0fe00793          	li	a5,254
     f28:	0ae7ca63          	blt	a5,a4,fdc <.L17>
     f2c:	00345793          	srl	a5,s0,0x3

00000f30 <.L12>:
  FP_HANDLE_EXCEPTIONS;

  return r;
}
     f30:	01c12083          	lw	ra,28(sp)
     f34:	01812403          	lw	s0,24(sp)

00000f38 <.LBB25>:
  FP_PACK_S (r, R);
     f38:	00979793          	sll	a5,a5,0x9

00000f3c <.LVL67>:
     f3c:	01771513          	sll	a0,a4,0x17
     f40:	0097d793          	srl	a5,a5,0x9
     f44:	01f99993          	sll	s3,s3,0x1f

00000f48 <.LVL68>:
     f48:	00f56533          	or	a0,a0,a5

00000f4c <.LBE25>:
}
     f4c:	01412483          	lw	s1,20(sp)
     f50:	01012903          	lw	s2,16(sp)
     f54:	00812a03          	lw	s4,8(sp)

00000f58 <.LVL69>:
     f58:	00412a83          	lw	s5,4(sp)

00000f5c <.LBB26>:
  FP_PACK_S (r, R);
     f5c:	01356533          	or	a0,a0,s3

00000f60 <.LBE26>:
}
     f60:	00c12983          	lw	s3,12(sp)
     f64:	02010113          	add	sp,sp,32
     f68:	00008067          	ret

00000f6c <.L8>:
  FP_MUL_S (R, A, B);
     f6c:	00f00613          	li	a2,15
     f70:	06c78c63          	beq	a5,a2,fe8 <.L30>
     f74:	00b00613          	li	a2,11
     f78:	f4c78ce3          	beq	a5,a2,ed0 <.L13>

00000f7c <.L27>:
     f7c:	00048413          	mv	s0,s1

00000f80 <.LVL74>:
     f80:	000a0713          	mv	a4,s4

00000f84 <.LVL75>:
     f84:	f51ff06f          	j	ed4 <.L11>

00000f88 <.L18>:
  FP_PACK_S (r, R);
     f88:	00100793          	li	a5,1
     f8c:	40e787b3          	sub	a5,a5,a4

00000f90 <.LVL77>:
     f90:	01b00713          	li	a4,27
     f94:	06f74263          	blt	a4,a5,ff8 <.L32>
     f98:	09e68693          	add	a3,a3,158
     f9c:	00d416b3          	sll	a3,s0,a3
     fa0:	00f457b3          	srl	a5,s0,a5

00000fa4 <.LVL78>:
     fa4:	00d036b3          	snez	a3,a3
     fa8:	00d7e7b3          	or	a5,a5,a3

00000fac <.LVL79>:
     fac:	0077f713          	and	a4,a5,7
     fb0:	00070a63          	beqz	a4,fc4 <.L21>
     fb4:	00f7f713          	and	a4,a5,15
     fb8:	00400693          	li	a3,4
     fbc:	00d70463          	beq	a4,a3,fc4 <.L21>
     fc0:	00478793          	add	a5,a5,4

00000fc4 <.L21>:
     fc4:	00579713          	sll	a4,a5,0x5
     fc8:	0037d793          	srl	a5,a5,0x3

00000fcc <.LVL81>:
     fcc:	02075863          	bgez	a4,ffc <.L52>
     fd0:	00000793          	li	a5,0
     fd4:	00100713          	li	a4,1
     fd8:	f59ff06f          	j	f30 <.L12>

00000fdc <.L17>:
     fdc:	00000793          	li	a5,0
     fe0:	0ff00713          	li	a4,255
     fe4:	f4dff06f          	j	f30 <.L12>

00000fe8 <.L30>:
     fe8:	004007b7          	lui	a5,0x400
     fec:	0ff00713          	li	a4,255
     ff0:	00000993          	li	s3,0
     ff4:	f3dff06f          	j	f30 <.L12>

00000ff8 <.L32>:
     ff8:	00000793          	li	a5,0

00000ffc <.L52>:
     ffc:	00000713          	li	a4,0
    1000:	f31ff06f          	j	f30 <.L12>

00001004 <__subsf3>:
  FP_DECL_S (B);
  FP_DECL_S (R);
  SFtype r;

  FP_INIT_ROUNDMODE;
  FP_UNPACK_SEMIRAW_S (A, a);
    1004:	008006b7          	lui	a3,0x800
    1008:	fff68693          	add	a3,a3,-1 # 7fffff <_ebss+0x7ea10f>

0000100c <.LBE2>:
{
    100c:	ff010113          	add	sp,sp,-16

00001010 <.LBB3>:
  FP_UNPACK_SEMIRAW_S (A, a);
    1010:	00a6f633          	and	a2,a3,a0

00001014 <.LVL1>:
    1014:	01755713          	srl	a4,a0,0x17

00001018 <.LBE3>:
{
    1018:	00812423          	sw	s0,8(sp)

0000101c <.LBB4>:
  FP_UNPACK_SEMIRAW_S (A, a);
    101c:	01f55413          	srl	s0,a0,0x1f

00001020 <.LBE4>:
    1020:	00361513          	sll	a0,a2,0x3

00001024 <.LBB5>:
  FP_UNPACK_SEMIRAW_S (B, b);
    1024:	0175d613          	srl	a2,a1,0x17

00001028 <.LVL3>:
    1028:	00b6f6b3          	and	a3,a3,a1

0000102c <.LBE5>:
{
    102c:	01212023          	sw	s2,0(sp)
    1030:	00112623          	sw	ra,12(sp)

00001034 <.LBB6>:
  FP_UNPACK_SEMIRAW_S (A, a);
    1034:	0ff77913          	zext.b	s2,a4

00001038 <.LBB7>:
{
    1038:	00912223          	sw	s1,4(sp)

0000103c <.LBB8>:
  FP_UNPACK_SEMIRAW_S (B, b);
    103c:	0ff67613          	zext.b	a2,a2

00001040 <.LBE8>:
  FP_SUB_S (R, A, B);
    1040:	0ff00713          	li	a4,255

00001044 <.LBB9>:
  FP_UNPACK_SEMIRAW_S (B, b);
    1044:	01f5d593          	srl	a1,a1,0x1f

00001048 <.LBE9>:
    1048:	00369793          	sll	a5,a3,0x3

0000104c <.LVL7>:
  FP_SUB_S (R, A, B);
    104c:	00e61463          	bne	a2,a4,1054 <.L2>
    1050:	00079463          	bnez	a5,1058 <.L3>

00001054 <.L2>:
    1054:	0015c593          	xor	a1,a1,1

00001058 <.L3>:
    1058:	40c906b3          	sub	a3,s2,a2

0000105c <.LBE10>:
    105c:	18859063          	bne	a1,s0,11dc <.L4>

00001060 <.LBB11>:
    1060:	08d05c63          	blez	a3,10f8 <.L5>

00001064 <.LVL10>:
    1064:	02061663          	bnez	a2,1090 <.L6>
    1068:	02078063          	beqz	a5,1088 <.L64>
    106c:	fff90693          	add	a3,s2,-1
    1070:	00069863          	bnez	a3,1080 <.L8>

00001074 <.L97>:
    1074:	00a787b3          	add	a5,a5,a0

00001078 <.LVL13>:
    1078:	00100913          	li	s2,1

0000107c <.LVL14>:
    107c:	04c0006f          	j	10c8 <.L9>

00001080 <.L8>:
    1080:	0ff00713          	li	a4,255
    1084:	00e91e63          	bne	s2,a4,10a0 <.L10>

00001088 <.L64>:
    1088:	00050793          	mv	a5,a0

0000108c <.LVL17>:
    108c:	10c0006f          	j	1198 <.L38>

00001090 <.L6>:
    1090:	0ff00713          	li	a4,255
    1094:	fee90ae3          	beq	s2,a4,1088 <.L64>
    1098:	04000737          	lui	a4,0x4000
    109c:	00e7e7b3          	or	a5,a5,a4

000010a0 <.L10>:
    10a0:	01b00613          	li	a2,27

000010a4 <.LVL20>:
    10a4:	00100713          	li	a4,1
    10a8:	00d64e63          	blt	a2,a3,10c4 <.L11>
    10ac:	02000613          	li	a2,32
    10b0:	00d7d733          	srl	a4,a5,a3
    10b4:	40d606b3          	sub	a3,a2,a3

000010b8 <.LVL21>:
    10b8:	00d796b3          	sll	a3,a5,a3
    10bc:	00d036b3          	snez	a3,a3
    10c0:	00d76733          	or	a4,a4,a3

000010c4 <.L11>:
    10c4:	00a707b3          	add	a5,a4,a0

000010c8 <.L9>:
    10c8:	00579713          	sll	a4,a5,0x5
    10cc:	0c075663          	bgez	a4,1198 <.L38>

000010d0 <.LVL24>:
    10d0:	00190913          	add	s2,s2,1

000010d4 <.LVL25>:
    10d4:	0ff00713          	li	a4,255
    10d8:	2ce90a63          	beq	s2,a4,13ac <.L54>
    10dc:	7e000737          	lui	a4,0x7e000
    10e0:	0017f693          	and	a3,a5,1

000010e4 <.LVL26>:
    10e4:	fff70713          	add	a4,a4,-1 # 7dffffff <_ebss+0x7dfea10f>
    10e8:	0017d793          	srl	a5,a5,0x1

000010ec <.LVL27>:
    10ec:	00e7f7b3          	and	a5,a5,a4

000010f0 <.LVL28>:
    10f0:	00d7e7b3          	or	a5,a5,a3
    10f4:	0a40006f          	j	1198 <.L38>

000010f8 <.L5>:
    10f8:	06068663          	beqz	a3,1164 <.L12>
    10fc:	41260733          	sub	a4,a2,s2

00001100 <.LVL30>:
    1100:	02091063          	bnez	s2,1120 <.L13>
    1104:	0c050863          	beqz	a0,11d4 <.L46>
    1108:	fff70693          	add	a3,a4,-1

0000110c <.LVL31>:
    110c:	f60684e3          	beqz	a3,1074 <.L97>
    1110:	0ff00593          	li	a1,255

00001114 <.LVL32>:
    1114:	02b71063          	bne	a4,a1,1134 <.L15>

00001118 <.L99>:
    1118:	0ff00913          	li	s2,255

0000111c <.LVL34>:
    111c:	07c0006f          	j	1198 <.L38>

00001120 <.L13>:
    1120:	0ff00693          	li	a3,255
    1124:	fed60ae3          	beq	a2,a3,1118 <.L99>
    1128:	040006b7          	lui	a3,0x4000
    112c:	00d56533          	or	a0,a0,a3
    1130:	00070693          	mv	a3,a4

00001134 <.L15>:
    1134:	01b00593          	li	a1,27
    1138:	00100713          	li	a4,1
    113c:	00d5ce63          	blt	a1,a3,1158 <.L16>
    1140:	02000713          	li	a4,32
    1144:	40d70733          	sub	a4,a4,a3
    1148:	00e51733          	sll	a4,a0,a4
    114c:	00d555b3          	srl	a1,a0,a3
    1150:	00e03733          	snez	a4,a4
    1154:	00e5e733          	or	a4,a1,a4

00001158 <.L16>:
    1158:	00e787b3          	add	a5,a5,a4

0000115c <.LVL39>:
    115c:	00060913          	mv	s2,a2

00001160 <.LVL40>:
    1160:	f69ff06f          	j	10c8 <.L9>

00001164 <.L12>:
    1164:	00190713          	add	a4,s2,1
    1168:	0fe77693          	and	a3,a4,254
    116c:	04069c63          	bnez	a3,11c4 <.L17>
    1170:	04091263          	bnez	s2,11b4 <.L18>

00001174 <.LVL42>:
    1174:	02050263          	beqz	a0,1198 <.L38>
    1178:	f00788e3          	beqz	a5,1088 <.L64>
    117c:	00a787b3          	add	a5,a5,a0

00001180 <.LVL43>:
    1180:	00579713          	sll	a4,a5,0x5
    1184:	00075a63          	bgez	a4,1198 <.L38>
    1188:	fc000737          	lui	a4,0xfc000
    118c:	fff70713          	add	a4,a4,-1 # fbffffff <_ebss+0xfbfea10f>
    1190:	00e7f7b3          	and	a5,a5,a4

00001194 <.LVL44>:
    1194:	00100913          	li	s2,1

00001198 <.L38>:
  FP_PACK_SEMIRAW_S (r, R);
    1198:	0077f713          	and	a4,a5,7
    119c:	20070a63          	beqz	a4,13b0 <.L39>
    11a0:	00f7f713          	and	a4,a5,15
    11a4:	00400693          	li	a3,4
    11a8:	20d70463          	beq	a4,a3,13b0 <.L39>
    11ac:	00478793          	add	a5,a5,4 # 400004 <_ebss+0x3ea114>
    11b0:	2000006f          	j	13b0 <.L39>

000011b4 <.L18>:
  FP_SUB_S (R, A, B);
    11b4:	f60502e3          	beqz	a0,1118 <.L99>

000011b8 <.L34>:
    11b8:	16079663          	bnez	a5,1324 <.L66>
    11bc:	00050793          	mv	a5,a0

000011c0 <.LVL49>:
    11c0:	f59ff06f          	j	1118 <.L99>

000011c4 <.L17>:
    11c4:	0ff00693          	li	a3,255
    11c8:	1ed70063          	beq	a4,a3,13a8 <.L53>
    11cc:	00f507b3          	add	a5,a0,a5

000011d0 <.LVL51>:
    11d0:	0017d793          	srl	a5,a5,0x1

000011d4 <.L46>:
    11d4:	00070913          	mv	s2,a4

000011d8 <.LVL53>:
    11d8:	fc1ff06f          	j	1198 <.L38>

000011dc <.L4>:
    11dc:	06d05e63          	blez	a3,1258 <.L19>

000011e0 <.LVL55>:
    11e0:	06061263          	bnez	a2,1244 <.L20>
    11e4:	ea0782e3          	beqz	a5,1088 <.L64>
    11e8:	fff90693          	add	a3,s2,-1

000011ec <.LVL56>:
    11ec:	00069863          	bnez	a3,11fc <.L21>
    11f0:	40f507b3          	sub	a5,a0,a5

000011f4 <.L98>:
    11f4:	00100913          	li	s2,1

000011f8 <.LVL58>:
    11f8:	0340006f          	j	122c <.L22>

000011fc <.L21>:
    11fc:	0ff00713          	li	a4,255
    1200:	e8e904e3          	beq	s2,a4,1088 <.L64>

00001204 <.L23>:
    1204:	01b00613          	li	a2,27

00001208 <.LVL61>:
    1208:	00100713          	li	a4,1
    120c:	00d64e63          	blt	a2,a3,1228 <.L24>
    1210:	02000613          	li	a2,32
    1214:	00d7d733          	srl	a4,a5,a3
    1218:	40d606b3          	sub	a3,a2,a3

0000121c <.LVL62>:
    121c:	00d796b3          	sll	a3,a5,a3
    1220:	00d036b3          	snez	a3,a3
    1224:	00d76733          	or	a4,a4,a3

00001228 <.L24>:
    1228:	40e507b3          	sub	a5,a0,a4

0000122c <.L22>:
    122c:	00579713          	sll	a4,a5,0x5
    1230:	f60754e3          	bgez	a4,1198 <.L38>

00001234 <.LBB13>:
    1234:	040004b7          	lui	s1,0x4000
    1238:	fff48493          	add	s1,s1,-1 # 3ffffff <_ebss+0x3fea10f>
    123c:	0097f4b3          	and	s1,a5,s1

00001240 <.LVL65>:
    1240:	1080006f          	j	1348 <.L36>

00001244 <.L20>:
    1244:	0ff00713          	li	a4,255
    1248:	e4e900e3          	beq	s2,a4,1088 <.L64>
    124c:	04000737          	lui	a4,0x4000
    1250:	00e7e7b3          	or	a5,a5,a4
    1254:	fb1ff06f          	j	1204 <.L23>

00001258 <.L19>:
    1258:	06068e63          	beqz	a3,12d4 <.L25>
    125c:	41260733          	sub	a4,a2,s2

00001260 <.LVL69>:
    1260:	02091663          	bnez	s2,128c <.L26>
    1264:	1a050e63          	beqz	a0,1420 <.L59>
    1268:	fff70693          	add	a3,a4,-1 # 3ffffff <_ebss+0x3fea10f>

0000126c <.LVL70>:
    126c:	00069863          	bnez	a3,127c <.L27>
    1270:	40a787b3          	sub	a5,a5,a0

00001274 <.LVL71>:
    1274:	00058413          	mv	s0,a1

00001278 <.LVL72>:
    1278:	f7dff06f          	j	11f4 <.L98>

0000127c <.L27>:
    127c:	0ff00813          	li	a6,255
    1280:	03071063          	bne	a4,a6,12a0 <.L28>

00001284 <.L61>:
    1284:	0ff00913          	li	s2,255

00001288 <.LVL75>:
    1288:	19c0006f          	j	1424 <.L63>

0000128c <.L26>:
    128c:	0ff00693          	li	a3,255
    1290:	fed60ae3          	beq	a2,a3,1284 <.L61>
    1294:	040006b7          	lui	a3,0x4000
    1298:	00d56533          	or	a0,a0,a3
    129c:	00070693          	mv	a3,a4

000012a0 <.L28>:
    12a0:	01b00813          	li	a6,27
    12a4:	00100713          	li	a4,1
    12a8:	00d84e63          	blt	a6,a3,12c4 <.L29>
    12ac:	02000713          	li	a4,32
    12b0:	40d70733          	sub	a4,a4,a3
    12b4:	00e51733          	sll	a4,a0,a4
    12b8:	00d55833          	srl	a6,a0,a3
    12bc:	00e03733          	snez	a4,a4
    12c0:	00e86733          	or	a4,a6,a4

000012c4 <.L29>:
    12c4:	40e787b3          	sub	a5,a5,a4

000012c8 <.LVL80>:
    12c8:	00060913          	mv	s2,a2

000012cc <.LVL81>:
    12cc:	00058413          	mv	s0,a1

000012d0 <.LVL82>:
    12d0:	f5dff06f          	j	122c <.L22>

000012d4 <.L25>:
    12d4:	00190713          	add	a4,s2,1
    12d8:	0fe77713          	and	a4,a4,254
    12dc:	04071c63          	bnez	a4,1334 <.L30>
    12e0:	02091c63          	bnez	s2,1318 <.L31>

000012e4 <.LVL84>:
    12e4:	00051863          	bnez	a0,12f4 <.L32>

000012e8 <.LVL85>:
    12e8:	12079e63          	bnez	a5,1424 <.L63>

000012ec <.L100>:
    12ec:	00000413          	li	s0,0

000012f0 <.LVL87>:
    12f0:	0c00006f          	j	13b0 <.L39>

000012f4 <.L32>:
    12f4:	d8078ae3          	beqz	a5,1088 <.L64>
    12f8:	40f50733          	sub	a4,a0,a5

000012fc <.LVL89>:
    12fc:	00571693          	sll	a3,a4,0x5
    1300:	40a787b3          	sub	a5,a5,a0

00001304 <.LVL90>:
    1304:	1206c063          	bltz	a3,1424 <.L63>
    1308:	00070793          	mv	a5,a4
    130c:	e80716e3          	bnez	a4,1198 <.L38>
    1310:	00000793          	li	a5,0
    1314:	fd9ff06f          	j	12ec <.L100>

00001318 <.L31>:
    1318:	ea0510e3          	bnez	a0,11b8 <.L34>
    131c:	00058413          	mv	s0,a1

00001320 <.LVL92>:
    1320:	de079ce3          	bnez	a5,1118 <.L99>

00001324 <.L66>:
    1324:	00000413          	li	s0,0
    1328:	020007b7          	lui	a5,0x2000

0000132c <.LVL94>:
    132c:	0ff00913          	li	s2,255

00001330 <.LVL95>:
    1330:	0800006f          	j	13b0 <.L39>

00001334 <.L30>:
    1334:	40f504b3          	sub	s1,a0,a5

00001338 <.LVL97>:
    1338:	00549713          	sll	a4,s1,0x5
    133c:	04075463          	bgez	a4,1384 <.L35>
    1340:	40a784b3          	sub	s1,a5,a0

00001344 <.LVL98>:
    1344:	00058413          	mv	s0,a1

00001348 <.L36>:
    1348:	00048513          	mv	a0,s1
    134c:	2c8000ef          	jal	1614 <__clzsi2>

00001350 <.LVL100>:
    1350:	ffb50513          	add	a0,a0,-5
    1354:	00a494b3          	sll	s1,s1,a0
    1358:	03254e63          	blt	a0,s2,1394 <.L37>
    135c:	41250533          	sub	a0,a0,s2

00001360 <.LVL103>:
    1360:	00150513          	add	a0,a0,1

00001364 <.LVL104>:
    1364:	02000713          	li	a4,32
    1368:	40a70733          	sub	a4,a4,a0
    136c:	00a4d7b3          	srl	a5,s1,a0
    1370:	00e494b3          	sll	s1,s1,a4

00001374 <.LVL105>:
    1374:	009034b3          	snez	s1,s1
    1378:	0097e7b3          	or	a5,a5,s1

0000137c <.LVL106>:
    137c:	00000913          	li	s2,0
    1380:	e19ff06f          	j	1198 <.L38>

00001384 <.L35>:
    1384:	fc0492e3          	bnez	s1,1348 <.L36>
    1388:	00000793          	li	a5,0

0000138c <.LVL108>:
    138c:	00000913          	li	s2,0

00001390 <.LVL109>:
    1390:	f5dff06f          	j	12ec <.L100>

00001394 <.L37>:
    1394:	fc0007b7          	lui	a5,0xfc000
    1398:	fff78793          	add	a5,a5,-1 # fbffffff <_ebss+0xfbfea10f>
    139c:	40a90933          	sub	s2,s2,a0
    13a0:	00f4f7b3          	and	a5,s1,a5

000013a4 <.LVL112>:
    13a4:	df5ff06f          	j	1198 <.L38>

000013a8 <.L53>:
    13a8:	0ff00913          	li	s2,255

000013ac <.L54>:
    13ac:	00000793          	li	a5,0

000013b0 <.L39>:
  FP_PACK_SEMIRAW_S (r, R);
    13b0:	00579713          	sll	a4,a5,0x5
    13b4:	00075e63          	bgez	a4,13d0 <.L40>

000013b8 <.LVL116>:
    13b8:	00190913          	add	s2,s2,1

000013bc <.LVL117>:
    13bc:	0ff00713          	li	a4,255
    13c0:	06e90663          	beq	s2,a4,142c <.L69>
    13c4:	fc000737          	lui	a4,0xfc000
    13c8:	fff70713          	add	a4,a4,-1 # fbffffff <_ebss+0xfbfea10f>
    13cc:	00e7f7b3          	and	a5,a5,a4

000013d0 <.L40>:
    13d0:	0ff00713          	li	a4,255
    13d4:	0037d793          	srl	a5,a5,0x3
    13d8:	00e91863          	bne	s2,a4,13e8 <.L41>
    13dc:	00078663          	beqz	a5,13e8 <.L41>
    13e0:	004007b7          	lui	a5,0x400

000013e4 <.LVL120>:
    13e4:	00000413          	li	s0,0

000013e8 <.L41>:
  FP_HANDLE_EXCEPTIONS;

  return r;
}
    13e8:	00c12083          	lw	ra,12(sp)

000013ec <.LBB28>:
  FP_PACK_SEMIRAW_S (r, R);
    13ec:	01791713          	sll	a4,s2,0x17
    13f0:	01f41513          	sll	a0,s0,0x1f
    13f4:	7f8006b7          	lui	a3,0x7f800

000013f8 <.LBE28>:
}
    13f8:	00812403          	lw	s0,8(sp)

000013fc <.LBB29>:
  FP_PACK_SEMIRAW_S (r, R);
    13fc:	00979793          	sll	a5,a5,0x9

00001400 <.LVL123>:
    1400:	00d77733          	and	a4,a4,a3
    1404:	0097d793          	srl	a5,a5,0x9
    1408:	00f767b3          	or	a5,a4,a5

0000140c <.LBE29>:
}
    140c:	00412483          	lw	s1,4(sp)
    1410:	00012903          	lw	s2,0(sp)

00001414 <.LVL125>:
    1414:	00a7e533          	or	a0,a5,a0

00001418 <.LVL126>:
    1418:	01010113          	add	sp,sp,16
    141c:	00008067          	ret

00001420 <.L59>:
  FP_SUB_S (R, A, B);
    1420:	00070913          	mv	s2,a4

00001424 <.L63>:
    1424:	00058413          	mv	s0,a1

00001428 <.LVL129>:
    1428:	d71ff06f          	j	1198 <.L38>

0000142c <.L69>:
    142c:	00000793          	li	a5,0

00001430 <.LVL131>:
    1430:	fa1ff06f          	j	13d0 <.L40>

00001434 <__fixsfsi>:
  FP_DECL_EX;
  FP_DECL_S (A);
  USItype r;

  FP_INIT_EXCEPTIONS;
  FP_UNPACK_RAW_S (A, a);
    1434:	00800637          	lui	a2,0x800
    1438:	01755713          	srl	a4,a0,0x17
    143c:	fff60793          	add	a5,a2,-1 # 7fffff <_ebss+0x7ea10f>
    1440:	0ff77713          	zext.b	a4,a4

00001444 <.LBE2>:
  FP_TO_INT_S (r, A, SI_BITS, 1);
    1444:	07e00593          	li	a1,126

00001448 <.LBB3>:
  FP_UNPACK_RAW_S (A, a);
    1448:	00a7f7b3          	and	a5,a5,a0

0000144c <.LVL1>:
    144c:	01f55693          	srl	a3,a0,0x1f

00001450 <.LBE3>:
  FP_TO_INT_S (r, A, SI_BITS, 1);
    1450:	04e5d663          	bge	a1,a4,149c <.L6>
    1454:	09d00593          	li	a1,157
    1458:	00e5da63          	bge	a1,a4,146c <.L3>

0000145c <.LVL3>:
    145c:	80000537          	lui	a0,0x80000

00001460 <.LVL4>:
    1460:	fff50513          	add	a0,a0,-1 # 7fffffff <_ebss+0x7ffea10f>
    1464:	00a68533          	add	a0,a3,a0

00001468 <.LVL5>:
    1468:	00008067          	ret

0000146c <.L3>:
    146c:	00c7e533          	or	a0,a5,a2

00001470 <.LVL7>:
    1470:	09500793          	li	a5,149
    1474:	00e7dc63          	bge	a5,a4,148c <.L4>

00001478 <.LVL8>:
    1478:	f6a70713          	add	a4,a4,-150

0000147c <.LVL9>:
    147c:	00e51533          	sll	a0,a0,a4

00001480 <.L5>:
    1480:	02068063          	beqz	a3,14a0 <.L2>
    1484:	40a00533          	neg	a0,a0
    1488:	00008067          	ret

0000148c <.L4>:
    148c:	09600793          	li	a5,150
    1490:	40e787b3          	sub	a5,a5,a4
    1494:	00f55533          	srl	a0,a0,a5

00001498 <.LVL13>:
    1498:	fe9ff06f          	j	1480 <.L5>

0000149c <.L6>:
    149c:	00000513          	li	a0,0

000014a0 <.L2>:
  FP_HANDLE_EXCEPTIONS;

  return r;
}
    14a0:	00008067          	ret

000014a4 <__fixunssfsi>:
  FP_DECL_EX;
  FP_DECL_S (A);
  USItype r;

  FP_INIT_EXCEPTIONS;
  FP_UNPACK_RAW_S (A, a);
    14a4:	008005b7          	lui	a1,0x800
    14a8:	01755793          	srl	a5,a0,0x17
    14ac:	fff58693          	add	a3,a1,-1 # 7fffff <_ebss+0x7ea10f>
    14b0:	0ff7f793          	zext.b	a5,a5

000014b4 <.LBE2>:
  FP_TO_INT_S (r, A, SI_BITS, 0);
    14b4:	07e00613          	li	a2,126

000014b8 <.LBB3>:
  FP_UNPACK_RAW_S (A, a);
    14b8:	00a6f6b3          	and	a3,a3,a0

000014bc <.LVL1>:
    14bc:	01f55713          	srl	a4,a0,0x1f

000014c0 <.LBE3>:
  FP_TO_INT_S (r, A, SI_BITS, 0);
    14c0:	04f65263          	bge	a2,a5,1504 <.L8>
    14c4:	00174613          	xor	a2,a4,1
    14c8:	09e60613          	add	a2,a2,158
    14cc:	fff70513          	add	a0,a4,-1

000014d0 <.LVL3>:
    14d0:	02c7dc63          	bge	a5,a2,1508 <.L1>
    14d4:	00000513          	li	a0,0
    14d8:	02071863          	bnez	a4,1508 <.L1>

000014dc <.LBB4>:
    14dc:	09500713          	li	a4,149

000014e0 <.LVL5>:
    14e0:	00b6e533          	or	a0,a3,a1

000014e4 <.LVL6>:
    14e4:	00f75863          	bge	a4,a5,14f4 <.L7>

000014e8 <.LVL7>:
    14e8:	f6a78793          	add	a5,a5,-150 # 3fff6a <_ebss+0x3ea07a>

000014ec <.LVL8>:
    14ec:	00f51533          	sll	a0,a0,a5

000014f0 <.LVL9>:
    14f0:	00008067          	ret

000014f4 <.L7>:
    14f4:	09600713          	li	a4,150
    14f8:	40f707b3          	sub	a5,a4,a5

000014fc <.LVL11>:
    14fc:	00f55533          	srl	a0,a0,a5

00001500 <.LVL12>:
    1500:	00008067          	ret

00001504 <.L8>:
    1504:	00000513          	li	a0,0

00001508 <.L1>:
  FP_HANDLE_EXCEPTIONS;

  return r;
}
    1508:	00008067          	ret

0000150c <__floatsisf>:
#include "soft-fp.h"
#include "single.h"

SFtype
__floatsisf (SItype i)
{
    150c:	ff010113          	add	sp,sp,-16
    1510:	00112623          	sw	ra,12(sp)
    1514:	00812423          	sw	s0,8(sp)
    1518:	00912223          	sw	s1,4(sp)
    151c:	00050793          	mv	a5,a0

00001520 <.LBB10>:
  FP_DECL_EX;
  FP_DECL_S (A);
  SFtype a;

  FP_INIT_ROUNDMODE;
  FP_FROM_INT_S (A, i, SI_BITS, USItype);
    1520:	0e050063          	beqz	a0,1600 <.L9>

00001524 <.LBB3>:
    1524:	41f55713          	sra	a4,a0,0x1f
    1528:	00a74433          	xor	s0,a4,a0
    152c:	40e40433          	sub	s0,s0,a4
    1530:	01f55493          	srl	s1,a0,0x1f

00001534 <.LBB4>:
    1534:	00040513          	mv	a0,s0

00001538 <.LVL3>:
    1538:	0dc000ef          	jal	1614 <__clzsi2>

0000153c <.LVL4>:
    153c:	09e00793          	li	a5,158
    1540:	40a787b3          	sub	a5,a5,a0

00001544 <.LBE4>:
    1544:	09600713          	li	a4,150
    1548:	04f74063          	blt	a4,a5,1588 <.L4>

0000154c <.LVL6>:
    154c:	00800713          	li	a4,8
    1550:	0ae50e63          	beq	a0,a4,160c <.L10>
    1554:	ff850513          	add	a0,a0,-8

00001558 <.LVL7>:
    1558:	00a41433          	sll	s0,s0,a0

0000155c <.L2>:
  FP_PACK_RAW_S (a, A);
    155c:	00941413          	sll	s0,s0,0x9

00001560 <.LVL9>:
    1560:	00945413          	srl	s0,s0,0x9
    1564:	01779793          	sll	a5,a5,0x17

00001568 <.LBE11>:
  FP_HANDLE_EXCEPTIONS;

  return a;
}
    1568:	00c12083          	lw	ra,12(sp)

0000156c <.LBB12>:
  FP_PACK_RAW_S (a, A);
    156c:	0087e7b3          	or	a5,a5,s0

00001570 <.LBE12>:
}
    1570:	00812403          	lw	s0,8(sp)

00001574 <.LBB13>:
  FP_PACK_RAW_S (a, A);
    1574:	01f49513          	sll	a0,s1,0x1f

00001578 <.LBE13>:
}
    1578:	00a7e533          	or	a0,a5,a0

0000157c <.LVL12>:
    157c:	00412483          	lw	s1,4(sp)

00001580 <.LVL13>:
    1580:	01010113          	add	sp,sp,16
    1584:	00008067          	ret

00001588 <.L4>:
  FP_FROM_INT_S (A, i, SI_BITS, USItype);
    1588:	09900713          	li	a4,153
    158c:	06f75463          	bge	a4,a5,15f4 <.L5>
    1590:	00500713          	li	a4,5
    1594:	40a70733          	sub	a4,a4,a0
    1598:	01b50693          	add	a3,a0,27
    159c:	00e45733          	srl	a4,s0,a4
    15a0:	00d41433          	sll	s0,s0,a3

000015a4 <.LVL15>:
    15a4:	00803433          	snez	s0,s0
    15a8:	00876733          	or	a4,a4,s0

000015ac <.L6>:
    15ac:	fc000437          	lui	s0,0xfc000
    15b0:	fff40413          	add	s0,s0,-1 # fbffffff <_ebss+0xfbfea10f>

000015b4 <.LBB5>:
    15b4:	00777693          	and	a3,a4,7

000015b8 <.LBE5>:
    15b8:	00877433          	and	s0,a4,s0

000015bc <.LBB6>:
    15bc:	00068a63          	beqz	a3,15d0 <.L7>

000015c0 <.LVL18>:
    15c0:	00f77713          	and	a4,a4,15
    15c4:	00400693          	li	a3,4
    15c8:	00d70463          	beq	a4,a3,15d0 <.L7>
    15cc:	00440413          	add	s0,s0,4

000015d0 <.L7>:
    15d0:	00541713          	sll	a4,s0,0x5
    15d4:	00075c63          	bgez	a4,15ec <.L8>
    15d8:	fc0007b7          	lui	a5,0xfc000

000015dc <.LVL20>:
    15dc:	fff78793          	add	a5,a5,-1 # fbffffff <_ebss+0xfbfea10f>
    15e0:	00f47433          	and	s0,s0,a5
    15e4:	09f00793          	li	a5,159
    15e8:	40a787b3          	sub	a5,a5,a0

000015ec <.L8>:
    15ec:	00345413          	srl	s0,s0,0x3
    15f0:	f6dff06f          	j	155c <.L2>

000015f4 <.L5>:
    15f4:	ffb50713          	add	a4,a0,-5
    15f8:	00e41733          	sll	a4,s0,a4
    15fc:	fb1ff06f          	j	15ac <.L6>

00001600 <.L9>:
    1600:	00000493          	li	s1,0
    1604:	00000413          	li	s0,0
    1608:	f55ff06f          	j	155c <.L2>

0000160c <.L10>:
    160c:	09600793          	li	a5,150

00001610 <.LVL27>:
    1610:	f4dff06f          	j	155c <.L2>

00001614 <__clzsi2>:
  count_leading_zeros (ret, x);
    1614:	000107b7          	lui	a5,0x10
    1618:	02f57a63          	bgeu	a0,a5,164c <.L2>
    161c:	10053793          	sltiu	a5,a0,256
    1620:	0017b793          	seqz	a5,a5
    1624:	00379793          	sll	a5,a5,0x3

00001628 <.L3>:
    1628:	02000713          	li	a4,32
    162c:	40f70733          	sub	a4,a4,a5
    1630:	00f55533          	srl	a0,a0,a5

00001634 <.LVL2>:
    1634:	0000f797          	auipc	a5,0xf
    1638:	c8c7a783          	lw	a5,-884(a5) # 102c0 <.LLST90+0x1b>

0000163c <.LVL3>:
    163c:	00a787b3          	add	a5,a5,a0
    1640:	0007c503          	lbu	a0,0(a5)

00001644 <.LBE3>:
}
    1644:	40a70533          	sub	a0,a4,a0
    1648:	00008067          	ret

0000164c <.L2>:
  count_leading_zeros (ret, x);
    164c:	01000737          	lui	a4,0x1000
    1650:	01800793          	li	a5,24
    1654:	fce57ae3          	bgeu	a0,a4,1628 <.L3>
    1658:	01000793          	li	a5,16
    165c:	fcdff06f          	j	1628 <.L3>

00001660 <__GI_close>:
    1660:	03900893          	li	a7,57
    1664:	00000073          	ecall
    1668:	fffff7b7          	lui	a5,0xfffff
    166c:	00a7fc63          	bgeu	a5,a0,1684 <.L1>
    1670:	40a00533          	neg	a0,a0
    1674:	0000f797          	auipc	a5,0xf
    1678:	c207a783          	lw	a5,-992(a5) # 10294 <_GLOBAL_OFFSET_TABLE_+0xc>
    167c:	00a7a023          	sw	a0,0(a5)
    1680:	fff00513          	li	a0,-1

00001684 <.L1>:
    1684:	00008067          	ret

00001688 <__close_nocancel_no_status>:
    1688:	03900893          	li	a7,57
    168c:	00000073          	ecall
    1690:	00008067          	ret

00001694 <__GI_ioctl>:
    1694:	fd010113          	add	sp,sp,-48
    1698:	02f12223          	sw	a5,36(sp)
    169c:	01810793          	add	a5,sp,24
    16a0:	03112623          	sw	a7,44(sp)
    16a4:	00c12c23          	sw	a2,24(sp)
    16a8:	00d12e23          	sw	a3,28(sp)
    16ac:	02e12023          	sw	a4,32(sp)
    16b0:	03012423          	sw	a6,40(sp)
    16b4:	00f12623          	sw	a5,12(sp)
    16b8:	01d00893          	li	a7,29
    16bc:	00000073          	ecall
    16c0:	fffff7b7          	lui	a5,0xfffff
    16c4:	00a7fc63          	bgeu	a5,a0,16dc <.L1>
    16c8:	40a00533          	neg	a0,a0
    16cc:	0000f797          	auipc	a5,0xf
    16d0:	bc87a783          	lw	a5,-1080(a5) # 10294 <_GLOBAL_OFFSET_TABLE_+0xc>
    16d4:	00a7a023          	sw	a0,0(a5)
    16d8:	fff00513          	li	a0,-1

000016dc <.L1>:
    16dc:	03010113          	add	sp,sp,48
    16e0:	00008067          	ret

000016e4 <__GI_lseek>:
    16e4:	00058793          	mv	a5,a1
    16e8:	ff010113          	add	sp,sp,-16
    16ec:	00060713          	mv	a4,a2
    16f0:	41f5d593          	sra	a1,a1,0x1f
    16f4:	00078613          	mv	a2,a5
    16f8:	00810693          	add	a3,sp,8
    16fc:	03e00893          	li	a7,62
    1700:	00000073          	ecall
    1704:	fffff7b7          	lui	a5,0xfffff
    1708:	02a7f063          	bgeu	a5,a0,1728 <.L2>
    170c:	40a00533          	neg	a0,a0
    1710:	0000f797          	auipc	a5,0xf
    1714:	b847a783          	lw	a5,-1148(a5) # 10294 <_GLOBAL_OFFSET_TABLE_+0xc>
    1718:	00a7a023          	sw	a0,0(a5)
    171c:	fff00513          	li	a0,-1

00001720 <.L1>:
    1720:	01010113          	add	sp,sp,16
    1724:	00008067          	ret

00001728 <.L2>:
    1728:	fe051ce3          	bnez	a0,1720 <.L1>
    172c:	00812503          	lw	a0,8(sp)
    1730:	ff1ff06f          	j	1720 <.L1>

00001734 <__GI_open>:
    1734:	fc010113          	add	sp,sp,-64
    1738:	02f12a23          	sw	a5,52(sp)
    173c:	004007b7          	lui	a5,0x400
    1740:	04078793          	add	a5,a5,64 # 400040 <_ebss+0x3ea150>
    1744:	02d12623          	sw	a3,44(sp)
    1748:	00112e23          	sw	ra,28(sp)
    174c:	02c12423          	sw	a2,40(sp)
    1750:	02e12823          	sw	a4,48(sp)
    1754:	03012c23          	sw	a6,56(sp)
    1758:	03112e23          	sw	a7,60(sp)
    175c:	00f5f7b3          	and	a5,a1,a5
    1760:	00000693          	li	a3,0
    1764:	00078863          	beqz	a5,1774 <.L2>
    1768:	02810793          	add	a5,sp,40
    176c:	00f12623          	sw	a5,12(sp)
    1770:	00060693          	mv	a3,a2

00001774 <.L2>:
    1774:	00058613          	mv	a2,a1
    1778:	00050593          	mv	a1,a0
    177c:	f9c00513          	li	a0,-100
    1780:	018000ef          	jal	1798 <__GI_openat>
    1784:	01c12083          	lw	ra,28(sp)
    1788:	04010113          	add	sp,sp,64
    178c:	00008067          	ret

00001790 <__open2_nocancel>:
    1790:	fa5ff06f          	j	1734 <__GI_open>

00001794 <__open_nocancel>:
    1794:	fa1ff06f          	j	1734 <__GI_open>

00001798 <__GI_openat>:
    1798:	fd010113          	add	sp,sp,-48
    179c:	02f12223          	sw	a5,36(sp)
    17a0:	01c10793          	add	a5,sp,28
    17a4:	03112623          	sw	a7,44(sp)
    17a8:	00d12e23          	sw	a3,28(sp)
    17ac:	02e12023          	sw	a4,32(sp)
    17b0:	03012423          	sw	a6,40(sp)
    17b4:	00f12623          	sw	a5,12(sp)
    17b8:	03800893          	li	a7,56
    17bc:	00000073          	ecall
    17c0:	fffff7b7          	lui	a5,0xfffff
    17c4:	00a7fc63          	bgeu	a5,a0,17dc <.L1>
    17c8:	40a00533          	neg	a0,a0
    17cc:	0000f797          	auipc	a5,0xf
    17d0:	ac87a783          	lw	a5,-1336(a5) # 10294 <_GLOBAL_OFFSET_TABLE_+0xc>
    17d4:	00a7a023          	sw	a0,0(a5)
    17d8:	fff00513          	li	a0,-1

000017dc <.L1>:
    17dc:	03010113          	add	sp,sp,48
    17e0:	00008067          	ret

000017e4 <__GI_write>:
    17e4:	04000893          	li	a7,64
    17e8:	00000073          	ecall
    17ec:	fffff7b7          	lui	a5,0xfffff
    17f0:	00a7fc63          	bgeu	a5,a0,1808 <.L1>
    17f4:	40a00533          	neg	a0,a0
    17f8:	0000f797          	auipc	a5,0xf
    17fc:	a9c7a783          	lw	a5,-1380(a5) # 10294 <_GLOBAL_OFFSET_TABLE_+0xc>
    1800:	00a7a023          	sw	a0,0(a5)
    1804:	fff00513          	li	a0,-1

00001808 <.L1>:
    1808:	00008067          	ret

0000180c <puts>:
    180c:	0000f797          	auipc	a5,0xf
    1810:	a807a783          	lw	a5,-1408(a5) # 1028c <_GLOBAL_OFFSET_TABLE_+0x4>
    1814:	0007a583          	lw	a1,0(a5)
    1818:	fe010113          	add	sp,sp,-32
    181c:	00912a23          	sw	s1,20(sp)
    1820:	00b12623          	sw	a1,12(sp)
    1824:	00112e23          	sw	ra,28(sp)
    1828:	00812c23          	sw	s0,24(sp)
    182c:	fff00493          	li	s1,-1
    1830:	1c4010ef          	jal	29f4 <__GI_fputs>
    1834:	00c12583          	lw	a1,12(sp)
    1838:	02951063          	bne	a0,s1,1858 <.L2>

0000183c <.L4>:
    183c:	fff00413          	li	s0,-1

00001840 <.L1>:
    1840:	01c12083          	lw	ra,28(sp)
    1844:	00040513          	mv	a0,s0
    1848:	01812403          	lw	s0,24(sp)
    184c:	01412483          	lw	s1,20(sp)
    1850:	02010113          	add	sp,sp,32
    1854:	00008067          	ret

00001858 <.L2>:
    1858:	00150413          	add	s0,a0,1
    185c:	00a00513          	li	a0,10
    1860:	09c010ef          	jal	28fc <__GI___fputc_unlocked>
    1864:	fc951ee3          	bne	a0,s1,1840 <.L1>
    1868:	fd5ff06f          	j	183c <.L4>

0000186c <__GI_printf>:
    186c:	fc010113          	add	sp,sp,-64
    1870:	02b12223          	sw	a1,36(sp)
    1874:	02c12423          	sw	a2,40(sp)
    1878:	02f12a23          	sw	a5,52(sp)
    187c:	02d12623          	sw	a3,44(sp)
    1880:	02e12823          	sw	a4,48(sp)
    1884:	03012c23          	sw	a6,56(sp)
    1888:	03112e23          	sw	a7,60(sp)
    188c:	0000f797          	auipc	a5,0xf
    1890:	a007a783          	lw	a5,-1536(a5) # 1028c <_GLOBAL_OFFSET_TABLE_+0x4>
    1894:	00050593          	mv	a1,a0
    1898:	0007a503          	lw	a0,0(a5)
    189c:	02410613          	add	a2,sp,36
    18a0:	00112e23          	sw	ra,28(sp)
    18a4:	00c12623          	sw	a2,12(sp)
    18a8:	134000ef          	jal	19dc <__GI_vfprintf>
    18ac:	01c12083          	lw	ra,28(sp)
    18b0:	04010113          	add	sp,sp,64
    18b4:	00008067          	ret

000018b8 <_stdio_term>:
    18b8:	ff010113          	add	sp,sp,-16
    18bc:	0000f797          	auipc	a5,0xf
    18c0:	9e87a783          	lw	a5,-1560(a5) # 102a4 <_GLOBAL_OFFSET_TABLE_+0x1c>
    18c4:	00812423          	sw	s0,8(sp)
    18c8:	0007a403          	lw	s0,0(a5)
    18cc:	00912223          	sw	s1,4(sp)
    18d0:	00112623          	sw	ra,12(sp)
    18d4:	ffe00493          	li	s1,-2

000018d8 <.L2>:
    18d8:	00041c63          	bnez	s0,18f0 <.L5>
    18dc:	00c12083          	lw	ra,12(sp)
    18e0:	00812403          	lw	s0,8(sp)
    18e4:	00412483          	lw	s1,4(sp)
    18e8:	01010113          	add	sp,sp,16
    18ec:	00008067          	ret

000018f0 <.L5>:
    18f0:	00045783          	lhu	a5,0(s0)
    18f4:	0407f793          	and	a5,a5,64
    18f8:	00078663          	beqz	a5,1904 <.L3>
    18fc:	00040513          	mv	a0,s0
    1900:	098000ef          	jal	1998 <__stdio_wcommit>

00001904 <.L3>:
    1904:	00442783          	lw	a5,4(s0)
    1908:	00979a63          	bne	a5,s1,191c <.L4>
    190c:	03442783          	lw	a5,52(s0)
    1910:	00078663          	beqz	a5,191c <.L4>
    1914:	02442503          	lw	a0,36(s0)
    1918:	000780e7          	jalr	a5

0000191c <.L4>:
    191c:	02042403          	lw	s0,32(s0)
    1920:	fb9ff06f          	j	18d8 <.L2>

00001924 <_stdio_init>:
    1924:	ff010113          	add	sp,sp,-16
    1928:	00812423          	sw	s0,8(sp)
    192c:	00000513          	li	a0,0
    1930:	0000f417          	auipc	s0,0xf
    1934:	96442403          	lw	s0,-1692(s0) # 10294 <_GLOBAL_OFFSET_TABLE_+0xc>
    1938:	00912223          	sw	s1,4(sp)
    193c:	00112623          	sw	ra,12(sp)
    1940:	00042483          	lw	s1,0(s0)
    1944:	774010ef          	jal	30b8 <__GI_isatty>
    1948:	00051c63          	bnez	a0,1960 <.L14>
    194c:	00011717          	auipc	a4,0x11
    1950:	9d070713          	add	a4,a4,-1584 # 1231c <_stdio_streams>
    1954:	00075783          	lhu	a5,0(a4)
    1958:	1007c793          	xor	a5,a5,256
    195c:	00f71023          	sh	a5,0(a4)

00001960 <.L14>:
    1960:	00100513          	li	a0,1
    1964:	754010ef          	jal	30b8 <__GI_isatty>
    1968:	00051c63          	bnez	a0,1980 <.L15>
    196c:	00011717          	auipc	a4,0x11
    1970:	9b070713          	add	a4,a4,-1616 # 1231c <_stdio_streams>
    1974:	02475783          	lhu	a5,36(a4)
    1978:	1007c793          	xor	a5,a5,256
    197c:	02f71223          	sh	a5,36(a4)

00001980 <.L15>:
    1980:	00942023          	sw	s1,0(s0)
    1984:	00c12083          	lw	ra,12(sp)
    1988:	00812403          	lw	s0,8(sp)
    198c:	00412483          	lw	s1,4(sp)
    1990:	01010113          	add	sp,sp,16
    1994:	00008067          	ret

00001998 <__stdio_wcommit>:
    1998:	00852583          	lw	a1,8(a0)
    199c:	01052783          	lw	a5,16(a0)
    19a0:	ff010113          	add	sp,sp,-16
    19a4:	00812423          	sw	s0,8(sp)
    19a8:	00112623          	sw	ra,12(sp)
    19ac:	00050413          	mv	s0,a0
    19b0:	40b78633          	sub	a2,a5,a1
    19b4:	00b78663          	beq	a5,a1,19c0 <.L2>
    19b8:	00b52823          	sw	a1,16(a0)
    19bc:	008030ef          	jal	49c4 <__stdio_WRITE>

000019c0 <.L2>:
    19c0:	01042503          	lw	a0,16(s0)
    19c4:	00842783          	lw	a5,8(s0)
    19c8:	00c12083          	lw	ra,12(sp)
    19cc:	00812403          	lw	s0,8(sp)
    19d0:	40f50533          	sub	a0,a0,a5
    19d4:	01010113          	add	sp,sp,16
    19d8:	00008067          	ret

000019dc <__GI_vfprintf>:
    19dc:	00055783          	lhu	a5,0(a0)
    19e0:	fe010113          	add	sp,sp,-32
    19e4:	00812c23          	sw	s0,24(sp)
    19e8:	00112e23          	sw	ra,28(sp)
    19ec:	0407f793          	and	a5,a5,64
    19f0:	00050413          	mv	s0,a0
    19f4:	00078c63          	beqz	a5,1a0c <.L2>

000019f8 <.L3>:
    19f8:	00040513          	mv	a0,s0
    19fc:	01812403          	lw	s0,24(sp)
    1a00:	01c12083          	lw	ra,28(sp)
    1a04:	02010113          	add	sp,sp,32
    1a08:	1580006f          	j	1b60 <_vfprintf_internal>

00001a0c <.L2>:
    1a0c:	00c12623          	sw	a2,12(sp)
    1a10:	00b12423          	sw	a1,8(sp)
    1a14:	4d4030ef          	jal	4ee8 <__stdio_trans2w>
    1a18:	00812583          	lw	a1,8(sp)
    1a1c:	00c12603          	lw	a2,12(sp)
    1a20:	fc050ce3          	beqz	a0,19f8 <.L3>
    1a24:	01c12083          	lw	ra,28(sp)
    1a28:	01812403          	lw	s0,24(sp)
    1a2c:	fff00513          	li	a0,-1
    1a30:	02010113          	add	sp,sp,32
    1a34:	00008067          	ret

00001a38 <_charpad>:
    1a38:	fd010113          	add	sp,sp,-48
    1a3c:	02812423          	sw	s0,40(sp)
    1a40:	02912223          	sw	s1,36(sp)
    1a44:	03212023          	sw	s2,32(sp)
    1a48:	01312e23          	sw	s3,28(sp)
    1a4c:	02112623          	sw	ra,44(sp)
    1a50:	00050913          	mv	s2,a0
    1a54:	00060413          	mv	s0,a2
    1a58:	00b10623          	sb	a1,12(sp)
    1a5c:	00060493          	mv	s1,a2
    1a60:	00c10993          	add	s3,sp,12

00001a64 <.L2>:
    1a64:	00048e63          	beqz	s1,1a80 <.L5>
    1a68:	00090613          	mv	a2,s2
    1a6c:	00100593          	li	a1,1
    1a70:	00098513          	mv	a0,s3
    1a74:	324030ef          	jal	4d98 <__stdio_fwrite>
    1a78:	00100793          	li	a5,1
    1a7c:	02f50263          	beq	a0,a5,1aa0 <.L4>

00001a80 <.L5>:
    1a80:	40940533          	sub	a0,s0,s1
    1a84:	02c12083          	lw	ra,44(sp)
    1a88:	02812403          	lw	s0,40(sp)
    1a8c:	02412483          	lw	s1,36(sp)
    1a90:	02012903          	lw	s2,32(sp)
    1a94:	01c12983          	lw	s3,28(sp)
    1a98:	03010113          	add	sp,sp,48
    1a9c:	00008067          	ret

00001aa0 <.L4>:
    1aa0:	fff48493          	add	s1,s1,-1
    1aa4:	fc1ff06f          	j	1a64 <.L2>

00001aa8 <_fp_out_narrow>:
    1aa8:	fe010113          	add	sp,sp,-32
    1aac:	00912a23          	sw	s1,20(sp)
    1ab0:	01312623          	sw	s3,12(sp)
    1ab4:	01412423          	sw	s4,8(sp)
    1ab8:	00112e23          	sw	ra,28(sp)
    1abc:	00812c23          	sw	s0,24(sp)
    1ac0:	01212823          	sw	s2,16(sp)
    1ac4:	01512223          	sw	s5,4(sp)
    1ac8:	0805f793          	and	a5,a1,128
    1acc:	00050a13          	mv	s4,a0
    1ad0:	00060493          	mv	s1,a2
    1ad4:	00068993          	mv	s3,a3
    1ad8:	06078e63          	beqz	a5,1b54 <.L12>
    1adc:	00068513          	mv	a0,a3
    1ae0:	00058a93          	mv	s5,a1
    1ae4:	358010ef          	jal	2e3c <__GI_strlen>
    1ae8:	40a484b3          	sub	s1,s1,a0
    1aec:	00050913          	mv	s2,a0
    1af0:	00000413          	li	s0,0
    1af4:	00905e63          	blez	s1,1b10 <.L9>
    1af8:	00048613          	mv	a2,s1
    1afc:	07faf593          	and	a1,s5,127
    1b00:	000a0513          	mv	a0,s4
    1b04:	f35ff0ef          	jal	1a38 <_charpad>
    1b08:	00050413          	mv	s0,a0
    1b0c:	02a49063          	bne	s1,a0,1b2c <.L8>

00001b10 <.L9>:
    1b10:	00000513          	li	a0,0
    1b14:	01205a63          	blez	s2,1b28 <.L11>
    1b18:	000a0613          	mv	a2,s4
    1b1c:	00090593          	mv	a1,s2
    1b20:	00098513          	mv	a0,s3
    1b24:	274030ef          	jal	4d98 <__stdio_fwrite>

00001b28 <.L11>:
    1b28:	00a40433          	add	s0,s0,a0

00001b2c <.L8>:
    1b2c:	01c12083          	lw	ra,28(sp)
    1b30:	00040513          	mv	a0,s0
    1b34:	01812403          	lw	s0,24(sp)
    1b38:	01412483          	lw	s1,20(sp)
    1b3c:	01012903          	lw	s2,16(sp)
    1b40:	00c12983          	lw	s3,12(sp)
    1b44:	00812a03          	lw	s4,8(sp)
    1b48:	00412a83          	lw	s5,4(sp)
    1b4c:	02010113          	add	sp,sp,32
    1b50:	00008067          	ret

00001b54 <.L12>:
    1b54:	00060913          	mv	s2,a2
    1b58:	00000413          	li	s0,0
    1b5c:	fb5ff06f          	j	1b10 <.L9>

00001b60 <_vfprintf_internal>:
    1b60:	e2010113          	add	sp,sp,-480
    1b64:	1d412423          	sw	s4,456(sp)
    1b68:	0c010a13          	add	s4,sp,192
    1b6c:	00a12223          	sw	a0,4(sp)
    1b70:	000a0513          	mv	a0,s4
    1b74:	1c812c23          	sw	s0,472(sp)
    1b78:	1c912a23          	sw	s1,468(sp)
    1b7c:	1c112e23          	sw	ra,476(sp)
    1b80:	1d212823          	sw	s2,464(sp)
    1b84:	1d312623          	sw	s3,460(sp)
    1b88:	1d512223          	sw	s5,452(sp)
    1b8c:	1d612023          	sw	s6,448(sp)
    1b90:	1b712e23          	sw	s7,444(sp)
    1b94:	1b812c23          	sw	s8,440(sp)
    1b98:	1b912a23          	sw	s9,436(sp)
    1b9c:	1ba12823          	sw	s10,432(sp)
    1ba0:	1bb12623          	sw	s11,428(sp)
    1ba4:	00058413          	mv	s0,a1
    1ba8:	00060493          	mv	s1,a2
    1bac:	5ac000ef          	jal	2158 <_ppfs_init>
    1bb0:	06055663          	bgez	a0,1c1c <.L17>
    1bb4:	0c012403          	lw	s0,192(sp)
    1bb8:	00040513          	mv	a0,s0
    1bbc:	280010ef          	jal	2e3c <__GI_strlen>
    1bc0:	00050593          	mv	a1,a0
    1bc4:	04051463          	bnez	a0,1c0c <.L18>

00001bc8 <.L60>:
    1bc8:	fff00493          	li	s1,-1

00001bcc <.L16>:
    1bcc:	1dc12083          	lw	ra,476(sp)
    1bd0:	1d812403          	lw	s0,472(sp)
    1bd4:	1d012903          	lw	s2,464(sp)
    1bd8:	1cc12983          	lw	s3,460(sp)
    1bdc:	1c812a03          	lw	s4,456(sp)
    1be0:	1c412a83          	lw	s5,452(sp)
    1be4:	1c012b03          	lw	s6,448(sp)
    1be8:	1bc12b83          	lw	s7,444(sp)
    1bec:	1b812c03          	lw	s8,440(sp)
    1bf0:	1b412c83          	lw	s9,436(sp)
    1bf4:	1b012d03          	lw	s10,432(sp)
    1bf8:	1ac12d83          	lw	s11,428(sp)
    1bfc:	00048513          	mv	a0,s1
    1c00:	1d412483          	lw	s1,468(sp)
    1c04:	1e010113          	add	sp,sp,480
    1c08:	00008067          	ret

00001c0c <.L18>:
    1c0c:	00412603          	lw	a2,4(sp)
    1c10:	00040513          	mv	a0,s0
    1c14:	184030ef          	jal	4d98 <__stdio_fwrite>
    1c18:	fb1ff06f          	j	1bc8 <.L60>

00001c1c <.L17>:
    1c1c:	00048593          	mv	a1,s1
    1c20:	000a0513          	mv	a0,s4
    1c24:	618000ef          	jal	223c <_ppfs_prepargs>
    1c28:	40000ab7          	lui	s5,0x40000
    1c2c:	10000b37          	lui	s6,0x10000
    1c30:	00040513          	mv	a0,s0
    1c34:	00000493          	li	s1,0
    1c38:	11010b93          	add	s7,sp,272
    1c3c:	93c18c13          	add	s8,gp,-1732 # 1045c <prefix.0>
    1c40:	fffa8a93          	add	s5,s5,-1 # 3fffffff <_ebss+0x3ffea10f>
    1c44:	fffb0b13          	add	s6,s6,-1 # fffffff <_ebss+0xffea10f>

00001c48 <.L21>:
    1c48:	00044783          	lbu	a5,0(s0)
    1c4c:	44078663          	beqz	a5,2098 <.L22>
    1c50:	02500713          	li	a4,37
    1c54:	00e79663          	bne	a5,a4,1c60 <.L23>
    1c58:	46a40463          	beq	s0,a0,20c0 <.L70>
    1c5c:	4400006f          	j	209c <.L69>

00001c60 <.L23>:
    1c60:	00140413          	add	s0,s0,1
    1c64:	fe5ff06f          	j	1c48 <.L21>

00001c68 <.L30>:
    1c68:	00a6a023          	sw	a0,0(a3) # 7f800000 <_ebss+0x7f7ea110>
    1c6c:	00170713          	add	a4,a4,1
    1c70:	00468693          	add	a3,a3,4
    1c74:	4a00006f          	j	2114 <.L29>

00001c78 <.L31>:
    1c78:	00700713          	li	a4,7
    1c7c:	28f76663          	bltu	a4,a5,1f08 <.L33>
    1c80:	00010717          	auipc	a4,0x10
    1c84:	2dc70713          	add	a4,a4,732 # 11f5c <spec_base.1>
    1c88:	00f70733          	add	a4,a4,a5
    1c8c:	fff74683          	lbu	a3,-1(a4)
    1c90:	00a00613          	li	a2,10
    1c94:	05700713          	li	a4,87
    1c98:	02c69263          	bne	a3,a2,1cbc <.L34>
    1c9c:	0d012603          	lw	a2,208(sp)
    1ca0:	02c00713          	li	a4,44
    1ca4:	02067513          	and	a0,a2,32
    1ca8:	00051463          	bnez	a0,1cb0 <.L35>
    1cac:	05700713          	li	a4,87

00001cb0 <.L35>:
    1cb0:	04067613          	and	a2,a2,64
    1cb4:	00060463          	beqz	a2,1cbc <.L34>
    1cb8:	08076713          	or	a4,a4,128

00001cbc <.L34>:
    1cbc:	00500613          	li	a2,5
    1cc0:	10f66663          	bltu	a2,a5,1dcc <.L36>
    1cc4:	00300613          	li	a2,3
    1cc8:	10c78663          	beq	a5,a2,1dd4 <.L74>
    1ccc:	00100613          	li	a2,1
    1cd0:	00600d93          	li	s11,6
    1cd4:	00c78463          	beq	a5,a2,1cdc <.L37>

00001cd8 <.L106>:
    1cd8:	00b00d93          	li	s11,11

00001cdc <.L37>:
    1cdc:	0c412603          	lw	a2,196(sp)
    1ce0:	02000913          	li	s2,32
    1ce4:	00065463          	bgez	a2,1cec <.L38>
    1ce8:	0d414903          	lbu	s2,212(sp)

00001cec <.L38>:
    1cec:	00100613          	li	a2,1
    1cf0:	40000513          	li	a0,1024
    1cf4:	02c78463          	beq	a5,a2,1d1c <.L39>
    1cf8:	015585b3          	add	a1,a1,s5
    1cfc:	00259593          	sll	a1,a1,0x2
    1d00:	19058793          	add	a5,a1,400
    1d04:	01010613          	add	a2,sp,16
    1d08:	00c785b3          	add	a1,a5,a2
    1d0c:	f485a503          	lw	a0,-184(a1)
    1d10:	000017b7          	lui	a5,0x1
    1d14:	f0078793          	add	a5,a5,-256 # f00 <.LVL62+0x10>
    1d18:	00f57533          	and	a0,a0,a5

00001d1c <.L39>:
    1d1c:	02c12583          	lw	a1,44(sp)
    1d20:	00068613          	mv	a2,a3
    1d24:	00e12623          	sw	a4,12(sp)
    1d28:	00d12423          	sw	a3,8(sp)
    1d2c:	290030ef          	jal	4fbc <_load_inttype>
    1d30:	00c12703          	lw	a4,12(sp)
    1d34:	00812683          	lw	a3,8(sp)
    1d38:	0bf10c93          	add	s9,sp,191
    1d3c:	00058613          	mv	a2,a1
    1d40:	00050593          	mv	a1,a0
    1d44:	000c8513          	mv	a0,s9
    1d48:	32c030ef          	jal	5074 <_uintmaxtostr>
    1d4c:	0e012703          	lw	a4,224(sp)
    1d50:	00500793          	li	a5,5
    1d54:	00050d13          	mv	s10,a0
    1d58:	02e7f263          	bgeu	a5,a4,1d7c <.L40>
    1d5c:	00054603          	lbu	a2,0(a0)
    1d60:	02d00693          	li	a3,45
    1d64:	0d012783          	lw	a5,208(sp)
    1d68:	06d61c63          	bne	a2,a3,1de0 <.L41>
    1d6c:	0027e793          	or	a5,a5,2
    1d70:	0cf12823          	sw	a5,208(sp)
    1d74:	00150d13          	add	s10,a0,1
    1d78:	00200d93          	li	s11,2

00001d7c <.L40>:
    1d7c:	0c412403          	lw	s0,196(sp)
    1d80:	41ac8cb3          	sub	s9,s9,s10
    1d84:	00045463          	bgez	s0,1d8c <.L42>
    1d88:	00100413          	li	s0,1

00001d8c <.L42>:
    1d8c:	0d012783          	lw	a5,208(sp)
    1d90:	000d4683          	lbu	a3,0(s10)
    1d94:	0107f793          	and	a5,a5,16
    1d98:	06078663          	beqz	a5,1e04 <.L43>
    1d9c:	00200793          	li	a5,2
    1da0:	06e7f063          	bgeu	a5,a4,1e00 <.L80>
    1da4:	00300793          	li	a5,3
    1da8:	12f70e63          	beq	a4,a5,1ee4 <.L81>
    1dac:	00400793          	li	a5,4
    1db0:	04f71a63          	bne	a4,a5,1e04 <.L43>
    1db4:	048ce863          	bltu	s9,s0,1e04 <.L43>
    1db8:	03000793          	li	a5,48
    1dbc:	001c8413          	add	s0,s9,1
    1dc0:	06f69263          	bne	a3,a5,1e24 <.L45>
    1dc4:	00100413          	li	s0,1
    1dc8:	0440006f          	j	1e0c <.L44>

00001dcc <.L36>:
    1dcc:	40d006b3          	neg	a3,a3
    1dd0:	f09ff06f          	j	1cd8 <.L106>

00001dd4 <.L74>:
    1dd4:	00b00d93          	li	s11,11
    1dd8:	03700713          	li	a4,55
    1ddc:	f01ff06f          	j	1cdc <.L37>

00001de0 <.L41>:
    1de0:	0027f693          	and	a3,a5,2
    1de4:	00069a63          	bnez	a3,1df8 <.L78>
    1de8:	0017f793          	and	a5,a5,1
    1dec:	f80788e3          	beqz	a5,1d7c <.L40>
    1df0:	00400d93          	li	s11,4
    1df4:	f89ff06f          	j	1d7c <.L40>

00001df8 <.L78>:
    1df8:	00000d93          	li	s11,0
    1dfc:	f81ff06f          	j	1d7c <.L40>

00001e00 <.L80>:
    1e00:	00600d93          	li	s11,6

00001e04 <.L43>:
    1e04:	03000793          	li	a5,48
    1e08:	00f69e63          	bne	a3,a5,1e24 <.L45>

00001e0c <.L44>:
    1e0c:	00500793          	li	a5,5
    1e10:	01b7d463          	bge	a5,s11,1e18 <.L46>
    1e14:	00b00d93          	li	s11,11

00001e18 <.L46>:
    1e18:	00100793          	li	a5,1
    1e1c:	0cf70863          	beq	a4,a5,1eec <.L84>
    1e20:	0e040063          	beqz	s0,1f00 <.L85>

00001e24 <.L45>:
    1e24:	0c8cfa63          	bgeu	s9,s0,1ef8 <.L86>
    1e28:	41940433          	sub	s0,s0,s9

00001e2c <.L47>:
    1e2c:	00b00713          	li	a4,11
    1e30:	019407b3          	add	a5,s0,s9
    1e34:	00ed8a63          	beq	s11,a4,1e48 <.L62>
    1e38:	00500713          	li	a4,5
    1e3c:	01b72733          	slt	a4,a4,s11
    1e40:	00170713          	add	a4,a4,1
    1e44:	00e787b3          	add	a5,a5,a4

00001e48 <.L62>:
    1e48:	0c812703          	lw	a4,200(sp)
    1e4c:	00000993          	li	s3,0
    1e50:	00e7f463          	bgeu	a5,a4,1e58 <.L64>
    1e54:	40f709b3          	sub	s3,a4,a5

00001e58 <.L64>:
    1e58:	00f487b3          	add	a5,s1,a5
    1e5c:	013784b3          	add	s1,a5,s3
    1e60:	03000793          	li	a5,48
    1e64:	00f91663          	bne	s2,a5,1e70 <.L65>
    1e68:	01340433          	add	s0,s0,s3
    1e6c:	00000993          	li	s3,0

00001e70 <.L65>:
    1e70:	0d012783          	lw	a5,208(sp)
    1e74:	0087f793          	and	a5,a5,8
    1e78:	00079e63          	bnez	a5,1e94 <.L66>
    1e7c:	00412503          	lw	a0,4(sp)
    1e80:	00098613          	mv	a2,s3
    1e84:	02000593          	li	a1,32
    1e88:	bb1ff0ef          	jal	1a38 <_charpad>
    1e8c:	d2a99ee3          	bne	s3,a0,1bc8 <.L60>
    1e90:	00000993          	li	s3,0

00001e94 <.L66>:
    1e94:	00412583          	lw	a1,4(sp)
    1e98:	01bc0533          	add	a0,s8,s11
    1e9c:	359000ef          	jal	29f4 <__GI_fputs>
    1ea0:	00412503          	lw	a0,4(sp)
    1ea4:	00040613          	mv	a2,s0
    1ea8:	03000593          	li	a1,48
    1eac:	b8dff0ef          	jal	1a38 <_charpad>
    1eb0:	d0a41ce3          	bne	s0,a0,1bc8 <.L60>
    1eb4:	000c8c63          	beqz	s9,1ecc <.L67>
    1eb8:	00412603          	lw	a2,4(sp)
    1ebc:	000c8593          	mv	a1,s9
    1ec0:	000d0513          	mv	a0,s10
    1ec4:	6d5020ef          	jal	4d98 <__stdio_fwrite>
    1ec8:	d0ac90e3          	bne	s9,a0,1bc8 <.L60>

00001ecc <.L67>:
    1ecc:	00412503          	lw	a0,4(sp)
    1ed0:	00098613          	mv	a2,s3
    1ed4:	02000593          	li	a1,32
    1ed8:	b61ff0ef          	jal	1a38 <_charpad>
    1edc:	26a98863          	beq	s3,a0,214c <.L32>
    1ee0:	ce9ff06f          	j	1bc8 <.L60>

00001ee4 <.L81>:
    1ee4:	00900d93          	li	s11,9
    1ee8:	f1dff06f          	j	1e04 <.L43>

00001eec <.L84>:
    1eec:	00010d17          	auipc	s10,0x10
    1ef0:	060d0d13          	add	s10,s10,96 # 11f4c <.LC0>
    1ef4:	00500c93          	li	s9,5

00001ef8 <.L86>:
    1ef8:	00000413          	li	s0,0
    1efc:	f31ff06f          	j	1e2c <.L47>

00001f00 <.L85>:
    1f00:	00000c93          	li	s9,0
    1f04:	ff5ff06f          	j	1ef8 <.L86>

00001f08 <.L33>:
    1f08:	00f00713          	li	a4,15
    1f0c:	08f76063          	bltu	a4,a5,1f8c <.L48>
    1f10:	0d012703          	lw	a4,208(sp)
    1f14:	02c12783          	lw	a5,44(sp)
    1f18:	01010413          	add	s0,sp,16
    1f1c:	01471693          	sll	a3,a4,0x14
    1f20:	0406d463          	bgez	a3,1f68 <.L49>
    1f24:	0007a603          	lw	a2,0(a5)
    1f28:	0047a683          	lw	a3,4(a5)
    1f2c:	0087a703          	lw	a4,8(a5)
    1f30:	00c7a783          	lw	a5,12(a5)

00001f34 <.L50>:
    1f34:	00412503          	lw	a0,4(sp)
    1f38:	00c12823          	sw	a2,16(sp)
    1f3c:	00d12a23          	sw	a3,20(sp)
    1f40:	0c410613          	add	a2,sp,196
    1f44:	00000697          	auipc	a3,0x0
    1f48:	b6468693          	add	a3,a3,-1180 # 1aa8 <_fp_out_narrow>
    1f4c:	00040593          	mv	a1,s0
    1f50:	00e12c23          	sw	a4,24(sp)
    1f54:	00f12e23          	sw	a5,28(sp)
    1f58:	1dc030ef          	jal	5134 <_fpmaxtostr>

00001f5c <.L108>:
    1f5c:	c60546e3          	bltz	a0,1bc8 <.L60>
    1f60:	00a484b3          	add	s1,s1,a0
    1f64:	1e80006f          	j	214c <.L32>

00001f68 <.L49>:
    1f68:	0047a603          	lw	a2,4(a5)
    1f6c:	0007a583          	lw	a1,0(a5)
    1f70:	00040513          	mv	a0,s0
    1f74:	0f50c0ef          	jal	e868 <__extenddftf2>
    1f78:	01012603          	lw	a2,16(sp)
    1f7c:	01412683          	lw	a3,20(sp)
    1f80:	01812703          	lw	a4,24(sp)
    1f84:	01c12783          	lw	a5,28(sp)
    1f88:	fadff06f          	j	1f34 <.L50>

00001f8c <.L48>:
    1f8c:	01100713          	li	a4,17
    1f90:	c2f77ce3          	bgeu	a4,a5,1bc8 <.L60>
    1f94:	01300713          	li	a4,19
    1f98:	08f76463          	bltu	a4,a5,2020 <.L52>
    1f9c:	02c12683          	lw	a3,44(sp)
    1fa0:	0006a403          	lw	s0,0(a3)
    1fa4:	04e79e63          	bne	a5,a4,2000 <.L53>
    1fa8:	0c412703          	lw	a4,196(sp)
    1fac:	02040863          	beqz	s0,1fdc <.L54>
    1fb0:	00040d13          	mv	s10,s0

00001fb4 <.L55>:
    1fb4:	0c412783          	lw	a5,196(sp)
    1fb8:	fff00593          	li	a1,-1
    1fbc:	0007c463          	bltz	a5,1fc4 <.L56>
    1fc0:	00078593          	mv	a1,a5

00001fc4 <.L56>:
    1fc4:	000d0513          	mv	a0,s10
    1fc8:	709000ef          	jal	2ed0 <__GI_strnlen>
    1fcc:	00050c93          	mv	s9,a0
    1fd0:	02000913          	li	s2,32
    1fd4:	00b00d93          	li	s11,11
    1fd8:	f21ff06f          	j	1ef8 <.L86>

00001fdc <.L54>:
    1fdc:	00500793          	li	a5,5
    1fe0:	00010d17          	auipc	s10,0x10
    1fe4:	f74d0d13          	add	s10,s10,-140 # 11f54 <.LC1>
    1fe8:	02000913          	li	s2,32
    1fec:	00b00d93          	li	s11,11
    1ff0:	00600c93          	li	s9,6
    1ff4:	e2e7ece3          	bltu	a5,a4,1e2c <.L47>
    1ff8:	00000c93          	li	s9,0
    1ffc:	e31ff06f          	j	1e2c <.L47>

00002000 <.L53>:
    2000:	04810023          	sb	s0,64(sp)
    2004:	040100a3          	sb	zero,65(sp)
    2008:	04010d13          	add	s10,sp,64
    200c:	02000913          	li	s2,32
    2010:	00b00d93          	li	s11,11
    2014:	00000413          	li	s0,0
    2018:	00100c93          	li	s9,1
    201c:	e11ff06f          	j	1e2c <.L47>

00002020 <.L52>:
    2020:	01400713          	li	a4,20
    2024:	02e79263          	bne	a5,a4,2048 <.L57>
    2028:	0000e797          	auipc	a5,0xe
    202c:	26c7a783          	lw	a5,620(a5) # 10294 <_GLOBAL_OFFSET_TABLE_+0xc>
    2030:	0007a503          	lw	a0,0(a5)
    2034:	08000613          	li	a2,128
    2038:	04010593          	add	a1,sp,64
    203c:	751000ef          	jal	2f8c <__GI___glibc_strerror_r>
    2040:	00050d13          	mv	s10,a0
    2044:	f71ff06f          	j	1fb4 <.L55>

00002048 <.L57>:
    2048:	0cc12583          	lw	a1,204(sp)
    204c:	00010717          	auipc	a4,0x10
    2050:	35472703          	lw	a4,852(a4) # 123a0 <_custom_printf_spec>
    2054:	00a70693          	add	a3,a4,10
    2058:	00070793          	mv	a5,a4

0000205c <.L61>:
    205c:	0007c503          	lbu	a0,0(a5)
    2060:	02b51663          	bne	a0,a1,208c <.L58>
    2064:	40e787b3          	sub	a5,a5,a4
    2068:	00279793          	sll	a5,a5,0x2
    206c:	00014717          	auipc	a4,0x14
    2070:	e4470713          	add	a4,a4,-444 # 15eb0 <_custom_printf_handler>
    2074:	00f707b3          	add	a5,a4,a5
    2078:	0007a783          	lw	a5,0(a5)
    207c:	00412503          	lw	a0,4(sp)
    2080:	0c410593          	add	a1,sp,196
    2084:	000780e7          	jalr	a5
    2088:	ed5ff06f          	j	1f5c <.L108>

0000208c <.L58>:
    208c:	00178793          	add	a5,a5,1
    2090:	fcd796e3          	bne	a5,a3,205c <.L61>
    2094:	b35ff06f          	j	1bc8 <.L60>

00002098 <.L22>:
    2098:	b2a40ae3          	beq	s0,a0,1bcc <.L16>

0000209c <.L69>:
    209c:	40a409b3          	sub	s3,s0,a0
    20a0:	b33054e3          	blez	s3,1bc8 <.L60>
    20a4:	00412603          	lw	a2,4(sp)
    20a8:	00098593          	mv	a1,s3
    20ac:	4ed020ef          	jal	4d98 <__stdio_fwrite>
    20b0:	b0a99ce3          	bne	s3,a0,1bc8 <.L60>
    20b4:	00044783          	lbu	a5,0(s0)
    20b8:	013484b3          	add	s1,s1,s3
    20bc:	b00788e3          	beqz	a5,1bcc <.L16>

000020c0 <.L70>:
    20c0:	00144703          	lbu	a4,1(s0)
    20c4:	02500793          	li	a5,37
    20c8:	00140513          	add	a0,s0,1
    20cc:	00240413          	add	s0,s0,2
    20d0:	b6f70ce3          	beq	a4,a5,1c48 <.L21>
    20d4:	0ca12023          	sw	a0,192(sp)
    20d8:	000a0513          	mv	a0,s4
    20dc:	35c000ef          	jal	2438 <_ppfs_parsespec>
    20e0:	000a0513          	mv	a0,s4
    20e4:	1a4000ef          	jal	2288 <_ppfs_setargs>
    20e8:	0d812703          	lw	a4,216(sp)
    20ec:	0e614583          	lbu	a1,230(sp)
    20f0:	000b8793          	mv	a5,s7
    20f4:	00e05863          	blez	a4,2104 <.L28>
    20f8:	016587b3          	add	a5,a1,s6
    20fc:	00479793          	sll	a5,a5,0x4
    2100:	00fb87b3          	add	a5,s7,a5

00002104 <.L28>:
    2104:	0dc12803          	lw	a6,220(sp)
    2108:	02c10693          	add	a3,sp,44
    210c:	00000713          	li	a4,0
    2110:	00068613          	mv	a2,a3

00002114 <.L29>:
    2114:	00471513          	sll	a0,a4,0x4
    2118:	00a78533          	add	a0,a5,a0
    211c:	b50746e3          	blt	a4,a6,1c68 <.L30>
    2120:	0e012783          	lw	a5,224(sp)
    2124:	b4079ae3          	bnez	a5,1c78 <.L31>
    2128:	0d012583          	lw	a1,208(sp)
    212c:	000017b7          	lui	a5,0x1
    2130:	f0078793          	add	a5,a5,-256 # f00 <.LVL62+0x10>
    2134:	00f5f5b3          	and	a1,a1,a5
    2138:	02c12783          	lw	a5,44(sp)
    213c:	00048613          	mv	a2,s1
    2140:	41f4d693          	sra	a3,s1,0x1f
    2144:	0007a503          	lw	a0,0(a5)
    2148:	6f1020ef          	jal	5038 <_store_inttype>

0000214c <.L32>:
    214c:	0c012403          	lw	s0,192(sp)
    2150:	00040513          	mv	a0,s0
    2154:	af5ff06f          	j	1c48 <.L21>

00002158 <_ppfs_init>:
    2158:	fe010113          	add	sp,sp,-32
    215c:	00912a23          	sw	s1,20(sp)
    2160:	0e000613          	li	a2,224
    2164:	00058493          	mv	s1,a1
    2168:	00000593          	li	a1,0
    216c:	00812c23          	sw	s0,24(sp)
    2170:	01212823          	sw	s2,16(sp)
    2174:	00050413          	mv	s0,a0
    2178:	00112e23          	sw	ra,28(sp)
    217c:	01312623          	sw	s3,12(sp)
    2180:	419000ef          	jal	2d98 <__GI_memset>
    2184:	01842783          	lw	a5,24(s0)
    2188:	02840913          	add	s2,s0,40
    218c:	00942023          	sw	s1,0(s0)
    2190:	fff78793          	add	a5,a5,-1
    2194:	00f42c23          	sw	a5,24(s0)
    2198:	04c40713          	add	a4,s0,76
    219c:	00090793          	mv	a5,s2
    21a0:	00800693          	li	a3,8

000021a4 <.L2>:
    21a4:	00478793          	add	a5,a5,4
    21a8:	fed7ae23          	sw	a3,-4(a5)
    21ac:	fef71ce3          	bne	a4,a5,21a4 <.L2>
    21b0:	00048793          	mv	a5,s1
    21b4:	02500993          	li	s3,37

000021b8 <.L3>:
    21b8:	0007c703          	lbu	a4,0(a5)
    21bc:	02071063          	bnez	a4,21dc <.L8>
    21c0:	01842783          	lw	a5,24(s0)
    21c4:	00942023          	sw	s1,0(s0)
    21c8:	00800713          	li	a4,8

000021cc <.L9>:
    21cc:	fff78793          	add	a5,a5,-1
    21d0:	0407de63          	bgez	a5,222c <.L11>
    21d4:	00000513          	li	a0,0
    21d8:	0280006f          	j	2200 <.L1>

000021dc <.L8>:
    21dc:	0017c683          	lbu	a3,1(a5)
    21e0:	05371263          	bne	a4,s3,2224 <.L4>
    21e4:	00178793          	add	a5,a5,1
    21e8:	03368e63          	beq	a3,s3,2224 <.L4>
    21ec:	00f42023          	sw	a5,0(s0)
    21f0:	00040513          	mv	a0,s0
    21f4:	244000ef          	jal	2438 <_ppfs_parsespec>
    21f8:	02055263          	bgez	a0,221c <.L5>

000021fc <.L10>:
    21fc:	fff00513          	li	a0,-1

00002200 <.L1>:
    2200:	01c12083          	lw	ra,28(sp)
    2204:	01812403          	lw	s0,24(sp)
    2208:	01412483          	lw	s1,20(sp)
    220c:	01012903          	lw	s2,16(sp)
    2210:	00c12983          	lw	s3,12(sp)
    2214:	02010113          	add	sp,sp,32
    2218:	00008067          	ret

0000221c <.L5>:
    221c:	00042783          	lw	a5,0(s0)
    2220:	f99ff06f          	j	21b8 <.L3>

00002224 <.L4>:
    2224:	00178793          	add	a5,a5,1
    2228:	f91ff06f          	j	21b8 <.L3>

0000222c <.L11>:
    222c:	00092683          	lw	a3,0(s2)
    2230:	fce686e3          	beq	a3,a4,21fc <.L10>
    2234:	00490913          	add	s2,s2,4
    2238:	f95ff06f          	j	21cc <.L9>

0000223c <_ppfs_prepargs>:
    223c:	ff010113          	add	sp,sp,-16
    2240:	00912223          	sw	s1,4(sp)
    2244:	01852483          	lw	s1,24(a0)
    2248:	00112623          	sw	ra,12(sp)
    224c:	00812423          	sw	s0,8(sp)
    2250:	04b52623          	sw	a1,76(a0)
    2254:	02905063          	blez	s1,2274 <.L1>
    2258:	00050413          	mv	s0,a0
    225c:	00952e23          	sw	s1,28(a0)
    2260:	00052c23          	sw	zero,24(a0)
    2264:	00052223          	sw	zero,4(a0)
    2268:	00052423          	sw	zero,8(a0)
    226c:	01c000ef          	jal	2288 <_ppfs_setargs>
    2270:	00942c23          	sw	s1,24(s0)

00002274 <.L1>:
    2274:	00c12083          	lw	ra,12(sp)
    2278:	00812403          	lw	s0,8(sp)
    227c:	00412483          	lw	s1,4(sp)
    2280:	01010113          	add	sp,sp,16
    2284:	00008067          	ret

00002288 <_ppfs_setargs>:
    2288:	01852603          	lw	a2,24(a0)
    228c:	00852783          	lw	a5,8(a0)
    2290:	00452683          	lw	a3,4(a0)
    2294:	05050713          	add	a4,a0,80
    2298:	12061c63          	bnez	a2,23d0 <.L2>
    229c:	800005b7          	lui	a1,0x80000
    22a0:	00b79e63          	bne	a5,a1,22bc <.L3>
    22a4:	04c52783          	lw	a5,76(a0)
    22a8:	00478593          	add	a1,a5,4
    22ac:	0007a783          	lw	a5,0(a5)
    22b0:	04b52623          	sw	a1,76(a0)
    22b4:	04f52823          	sw	a5,80(a0)
    22b8:	00f52423          	sw	a5,8(a0)

000022bc <.L3>:
    22bc:	800007b7          	lui	a5,0x80000
    22c0:	00f69e63          	bne	a3,a5,22dc <.L4>
    22c4:	04c52783          	lw	a5,76(a0)
    22c8:	00478693          	add	a3,a5,4 # 80000004 <_ebss+0x7ffea114>
    22cc:	0007a783          	lw	a5,0(a5)
    22d0:	04d52623          	sw	a3,76(a0)
    22d4:	04f52823          	sw	a5,80(a0)
    22d8:	00f52223          	sw	a5,4(a0)

000022dc <.L4>:
    22dc:	01c52f03          	lw	t5,28(a0)
    22e0:	00001837          	lui	a6,0x1
    22e4:	000018b7          	lui	a7,0x1
    22e8:	02850593          	add	a1,a0,40
    22ec:	00800e13          	li	t3,8
    22f0:	80080813          	add	a6,a6,-2048 # 800 <.L25>
    22f4:	80788893          	add	a7,a7,-2041 # 807 <.L25+0x7>
    22f8:	00200e93          	li	t4,2
    22fc:	00700f93          	li	t6,7

00002300 <.L5>:
    2300:	03e64863          	blt	a2,t5,2330 <.L17>

00002304 <.L18>:
    2304:	00852783          	lw	a5,8(a0)
    2308:	0207d263          	bgez	a5,232c <.L1>
    230c:	40f007b3          	neg	a5,a5
    2310:	00f52423          	sw	a5,8(a0)
    2314:	01052783          	lw	a5,16(a0)
    2318:	ffe7f793          	and	a5,a5,-2
    231c:	0087e793          	or	a5,a5,8
    2320:	00f52823          	sw	a5,16(a0)
    2324:	02000793          	li	a5,32
    2328:	00f52a23          	sw	a5,20(a0)

0000232c <.L1>:
    232c:	00008067          	ret

00002330 <.L17>:
    2330:	0005a683          	lw	a3,0(a1) # 80000000 <_ebss+0x7ffea110>
    2334:	00160613          	add	a2,a2,1
    2338:	05c68863          	beq	a3,t3,2388 <.L6>
    233c:	04c52783          	lw	a5,76(a0)
    2340:	04de4863          	blt	t3,a3,2390 <.L7>
    2344:	01d68463          	beq	a3,t4,234c <.L10>
    2348:	00decc63          	blt	t4,a3,2360 <.L9>

0000234c <.L10>:
    234c:	00478693          	add	a3,a5,4
    2350:	04d52623          	sw	a3,76(a0)
    2354:	0007a783          	lw	a5,0(a5)
    2358:	00f72023          	sw	a5,0(a4)
    235c:	0280006f          	j	2384 <.L16>

00002360 <.L9>:
    2360:	fff696e3          	bne	a3,t6,234c <.L10>

00002364 <.L12>:
    2364:	00778793          	add	a5,a5,7
    2368:	ff87f793          	and	a5,a5,-8
    236c:	00878693          	add	a3,a5,8
    2370:	04d52623          	sw	a3,76(a0)
    2374:	0007a303          	lw	t1,0(a5)
    2378:	0047a383          	lw	t2,4(a5)
    237c:	00672023          	sw	t1,0(a4)
    2380:	00772223          	sw	t2,4(a4)

00002384 <.L16>:
    2384:	01070713          	add	a4,a4,16

00002388 <.L6>:
    2388:	00458593          	add	a1,a1,4
    238c:	f75ff06f          	j	2300 <.L5>

00002390 <.L7>:
    2390:	80068313          	add	t1,a3,-2048
    2394:	fc0308e3          	beqz	t1,2364 <.L12>
    2398:	fad85ae3          	bge	a6,a3,234c <.L10>
    239c:	fb1698e3          	bne	a3,a7,234c <.L10>
    23a0:	00478693          	add	a3,a5,4
    23a4:	04d52623          	sw	a3,76(a0)
    23a8:	0007a783          	lw	a5,0(a5)
    23ac:	0007a283          	lw	t0,0(a5)
    23b0:	0047a303          	lw	t1,4(a5)
    23b4:	0087a683          	lw	a3,8(a5)
    23b8:	00c7a783          	lw	a5,12(a5)
    23bc:	00572023          	sw	t0,0(a4)
    23c0:	00672223          	sw	t1,4(a4)
    23c4:	00d72423          	sw	a3,8(a4)
    23c8:	00f72623          	sw	a5,12(a4)
    23cc:	fb9ff06f          	j	2384 <.L16>

000023d0 <.L2>:
    23d0:	80000637          	lui	a2,0x80000
    23d4:	00c79c63          	bne	a5,a2,23ec <.L19>
    23d8:	02454783          	lbu	a5,36(a0)
    23dc:	00479793          	sll	a5,a5,0x4
    23e0:	00f707b3          	add	a5,a4,a5
    23e4:	ff07a783          	lw	a5,-16(a5)
    23e8:	00f52423          	sw	a5,8(a0)

000023ec <.L19>:
    23ec:	800007b7          	lui	a5,0x80000
    23f0:	f0f69ae3          	bne	a3,a5,2304 <.L18>
    23f4:	02554783          	lbu	a5,37(a0)
    23f8:	00479793          	sll	a5,a5,0x4
    23fc:	00f70733          	add	a4,a4,a5
    2400:	ff072783          	lw	a5,-16(a4)
    2404:	00f52223          	sw	a5,4(a0)
    2408:	efdff06f          	j	2304 <.L18>

0000240c <_promoted_size>:
    240c:	96018793          	add	a5,gp,-1696 # 10480 <type_sizes>
    2410:	94818713          	add	a4,gp,-1720 # 10468 <type_codes>

00002414 <.L3>:
    2414:	ffe79683          	lh	a3,-2(a5) # 7ffffffe <_ebss+0x7ffea10e>
    2418:	ffe78793          	add	a5,a5,-2
    241c:	00a68463          	beq	a3,a0,2424 <.L2>
    2420:	fee79ae3          	bne	a5,a4,2414 <.L3>

00002424 <.L2>:
    2424:	40e787b3          	sub	a5,a5,a4
    2428:	4017d793          	sra	a5,a5,0x1
    242c:	00f70733          	add	a4,a4,a5
    2430:	01874503          	lbu	a0,24(a4)
    2434:	00008067          	ret

00002438 <_ppfs_parsespec>:
    2438:	f9010113          	add	sp,sp,-112
    243c:	00800793          	li	a5,8
    2440:	0cccd337          	lui	t1,0xcccd
    2444:	0cccde37          	lui	t3,0xcccd
    2448:	80000837          	lui	a6,0x80000
    244c:	00052683          	lw	a3,0(a0)
    2450:	06812423          	sw	s0,104(sp)
    2454:	07212023          	sw	s2,96(sp)
    2458:	05312e23          	sw	s3,92(sp)
    245c:	05412c23          	sw	s4,88(sp)
    2460:	01852983          	lw	s3,24(a0)
    2464:	05512a23          	sw	s5,84(sp)
    2468:	05612823          	sw	s6,80(sp)
    246c:	00050413          	mv	s0,a0
    2470:	06112623          	sw	ra,108(sp)
    2474:	06912223          	sw	s1,100(sp)
    2478:	05712623          	sw	s7,76(sp)
    247c:	05812423          	sw	s8,72(sp)
    2480:	05912223          	sw	s9,68(sp)
    2484:	05a12023          	sw	s10,64(sp)
    2488:	03b12e23          	sw	s11,60(sp)
    248c:	00012423          	sw	zero,8(sp)
    2490:	00012623          	sw	zero,12(sp)
    2494:	00f12a23          	sw	a5,20(sp)
    2498:	00f12c23          	sw	a5,24(sp)
    249c:	00010297          	auipc	t0,0x10
    24a0:	f1c2a283          	lw	t0,-228(t0) # 123b8 <__GI___ctype_b>
    24a4:	00000513          	li	a0,0
    24a8:	00000613          	li	a2,0
    24ac:	00000893          	li	a7,0
    24b0:	02a00e93          	li	t4,42
    24b4:	ccb30313          	add	t1,t1,-821 # ccccccb <_ebss+0xccb6ddb>
    24b8:	00a00393          	li	t2,10
    24bc:	ccce0e13          	add	t3,t3,-820 # ccccccc <_ebss+0xccb6ddc>
    24c0:	fff80813          	add	a6,a6,-1 # 7fffffff <_ebss+0x7ffea10f>
    24c4:	03700913          	li	s2,55
    24c8:	02500f13          	li	t5,37
    24cc:	02e00a13          	li	s4,46
    24d0:	02400f93          	li	t6,36
    24d4:	03000a93          	li	s5,48
    24d8:	06d00b13          	li	s6,109

000024dc <.L6>:
    24dc:	0006c783          	lbu	a5,0(a3)
    24e0:	00068713          	mv	a4,a3
    24e4:	01d79c63          	bne	a5,t4,24fc <.L7>
    24e8:	03010713          	add	a4,sp,48
    24ec:	00251793          	sll	a5,a0,0x2
    24f0:	40f707b3          	sub	a5,a4,a5
    24f4:	fe07a223          	sw	zero,-28(a5)
    24f8:	00168713          	add	a4,a3,1

000024fc <.L7>:
    24fc:	00000793          	li	a5,0

00002500 <.L8>:
    2500:	00074583          	lbu	a1,0(a4)
    2504:	00159493          	sll	s1,a1,0x1
    2508:	009284b3          	add	s1,t0,s1
    250c:	0004d483          	lhu	s1,0(s1)
    2510:	0084f493          	and	s1,s1,8
    2514:	04049e63          	bnez	s1,2570 <.L11>
    2518:	fff6c483          	lbu	s1,-1(a3)
    251c:	0be49e63          	bne	s1,t5,25d8 <.L12>
    2520:	0bf59863          	bne	a1,t6,25d0 <.L13>
    2524:	3cf05063          	blez	a5,28e4 <.L14>
    2528:	00170693          	add	a3,a4,1
    252c:	06099663          	bnez	s3,2598 <.L15>

00002530 <.L20>:
    2530:	fff00513          	li	a0,-1

00002534 <.L5>:
    2534:	06c12083          	lw	ra,108(sp)
    2538:	06812403          	lw	s0,104(sp)
    253c:	06412483          	lw	s1,100(sp)
    2540:	06012903          	lw	s2,96(sp)
    2544:	05c12983          	lw	s3,92(sp)
    2548:	05812a03          	lw	s4,88(sp)
    254c:	05412a83          	lw	s5,84(sp)
    2550:	05012b03          	lw	s6,80(sp)
    2554:	04c12b83          	lw	s7,76(sp)
    2558:	04812c03          	lw	s8,72(sp)
    255c:	04412c83          	lw	s9,68(sp)
    2560:	04012d03          	lw	s10,64(sp)
    2564:	03c12d83          	lw	s11,60(sp)
    2568:	07010113          	add	sp,sp,112
    256c:	00008067          	ret

00002570 <.L11>:
    2570:	00f35663          	bge	t1,a5,257c <.L9>
    2574:	01c79e63          	bne	a5,t3,2590 <.L53>
    2578:	00b96c63          	bltu	s2,a1,2590 <.L53>

0000257c <.L9>:
    257c:	027787b3          	mul	a5,a5,t2
    2580:	fd058593          	add	a1,a1,-48
    2584:	00f587b3          	add	a5,a1,a5

00002588 <.L10>:
    2588:	00170713          	add	a4,a4,1
    258c:	f75ff06f          	j	2500 <.L8>

00002590 <.L53>:
    2590:	00080793          	mv	a5,a6
    2594:	ff5ff06f          	j	2588 <.L10>

00002598 <.L15>:
    2598:	00f12823          	sw	a5,16(sp)
    259c:	00f9d463          	bge	s3,a5,25a4 <.L18>
    25a0:	00078993          	mv	s3,a5

000025a4 <.L18>:
    25a4:	00068713          	mv	a4,a3

000025a8 <.L22>:
    25a8:	00074483          	lbu	s1,0(a4)
    25ac:	00100793          	li	a5,1
    25b0:	00010697          	auipc	a3,0x10
    25b4:	9cc68693          	add	a3,a3,-1588 # 11f7c <spec_flags.5>

000025b8 <.L23>:
    25b8:	0006c583          	lbu	a1,0(a3)
    25bc:	00168693          	add	a3,a3,1
    25c0:	06959663          	bne	a1,s1,262c <.L21>
    25c4:	00170713          	add	a4,a4,1
    25c8:	00f66633          	or	a2,a2,a5
    25cc:	fddff06f          	j	25a8 <.L22>

000025d0 <.L13>:
    25d0:	31305c63          	blez	s3,28e8 <.L19>
    25d4:	f5659ee3          	bne	a1,s6,2530 <.L20>

000025d8 <.L12>:
    25d8:	0006c583          	lbu	a1,0(a3)
    25dc:	00070493          	mv	s1,a4
    25e0:	03d59663          	bne	a1,t4,260c <.L25>
    25e4:	06098a63          	beqz	s3,2658 <.L26>
    25e8:	00170493          	add	s1,a4,1
    25ec:	00074703          	lbu	a4,0(a4)
    25f0:	f5f710e3          	bne	a4,t6,2530 <.L20>
    25f4:	f2f05ee3          	blez	a5,2530 <.L20>
    25f8:	00251713          	sll	a4,a0,0x2
    25fc:	03010693          	add	a3,sp,48
    2600:	40e68733          	sub	a4,a3,a4
    2604:	fcf72c23          	sw	a5,-40(a4)

00002608 <.L72>:
    2608:	800007b7          	lui	a5,0x80000

0000260c <.L25>:
    260c:	0004c583          	lbu	a1,0(s1)
    2610:	04051e63          	bnez	a0,266c <.L27>
    2614:	05459863          	bne	a1,s4,2664 <.L57>
    2618:	00148713          	add	a4,s1,1
    261c:	00078893          	mv	a7,a5
    2620:	fff00513          	li	a0,-1

00002624 <.L24>:
    2624:	00070693          	mv	a3,a4
    2628:	eb5ff06f          	j	24dc <.L6>

0000262c <.L21>:
    262c:	0006c583          	lbu	a1,0(a3)
    2630:	00179793          	sll	a5,a5,0x1
    2634:	f80592e3          	bnez	a1,25b8 <.L23>
    2638:	40165793          	sra	a5,a2,0x1
    263c:	0057f793          	and	a5,a5,5
    2640:	fff7c793          	not	a5,a5
    2644:	00f67633          	and	a2,a2,a5
    2648:	fff74783          	lbu	a5,-1(a4)
    264c:	fde79ce3          	bne	a5,t5,2624 <.L24>
    2650:	00000793          	li	a5,0
    2654:	f85ff06f          	j	25d8 <.L12>

00002658 <.L26>:
    2658:	00168493          	add	s1,a3,1
    265c:	fa9706e3          	beq	a4,s1,2608 <.L72>
    2660:	ed1ff06f          	j	2530 <.L20>

00002664 <.L57>:
    2664:	00078893          	mv	a7,a5
    2668:	fff00793          	li	a5,-1

0000266c <.L27>:
    266c:	96c18713          	add	a4,gp,-1684 # 1048c <qual_chars.4>
    2670:	00070693          	mv	a3,a4

00002674 <.L30>:
    2674:	00074503          	lbu	a0,0(a4)
    2678:	1ab51663          	bne	a0,a1,2824 <.L28>
    267c:	00148493          	add	s1,s1,1

00002680 <.L29>:
    2680:	40d706b3          	sub	a3,a4,a3
    2684:	00100513          	li	a0,1
    2688:	0004c583          	lbu	a1,0(s1)
    268c:	00d54a63          	blt	a0,a3,26a0 <.L31>
    2690:	00074683          	lbu	a3,0(a4)
    2694:	00b69663          	bne	a3,a1,26a0 <.L31>
    2698:	00970713          	add	a4,a4,9
    269c:	00148493          	add	s1,s1,1

000026a0 <.L31>:
    26a0:	00974683          	lbu	a3,9(a4)
    26a4:	0004c583          	lbu	a1,0(s1)
    26a8:	00869693          	sll	a3,a3,0x8
    26ac:	e80582e3          	beqz	a1,2530 <.L20>
    26b0:	00010717          	auipc	a4,0x10
    26b4:	8b470713          	add	a4,a4,-1868 # 11f64 <spec_chars.3>
    26b8:	00070813          	mv	a6,a4

000026bc <.L36>:
    26bc:	00074503          	lbu	a0,0(a4)
    26c0:	16b51a63          	bne	a0,a1,2834 <.L32>
    26c4:	41070733          	sub	a4,a4,a6
    26c8:	01100593          	li	a1,17
    26cc:	00e5d863          	bge	a1,a4,26dc <.L33>
    26d0:	4006f593          	and	a1,a3,1024
    26d4:	00058463          	beqz	a1,26dc <.L33>
    26d8:	ffe70713          	add	a4,a4,-2

000026dc <.L33>:
    26dc:	98018513          	add	a0,gp,-1664 # 104a0 <spec_ranges.2>
    26e0:	02e42023          	sw	a4,32(s0)
    26e4:	00050813          	mv	a6,a0

000026e8 <.L34>:
    26e8:	00050593          	mv	a1,a0
    26ec:	0005c303          	lbu	t1,0(a1)
    26f0:	00150513          	add	a0,a0,1
    26f4:	fee34ae3          	blt	t1,a4,26e8 <.L34>
    26f8:	410585b3          	sub	a1,a1,a6
    26fc:	94818713          	add	a4,gp,-1720 # 10468 <type_codes>
    2700:	00159593          	sll	a1,a1,0x1
    2704:	00b705b3          	add	a1,a4,a1
    2708:	04459703          	lh	a4,68(a1)
    270c:	05459583          	lh	a1,84(a1)
    2710:	00d76733          	or	a4,a4,a3
    2714:	00b77733          	and	a4,a4,a1
    2718:	00e12e23          	sw	a4,28(sp)
    271c:	00010717          	auipc	a4,0x10
    2720:	84870713          	add	a4,a4,-1976 # 11f64 <spec_chars.3>

00002724 <.L35>:
    2724:	0004c583          	lbu	a1,0(s1)
    2728:	00f42223          	sw	a5,4(s0)
    272c:	01142423          	sw	a7,8(s0)
    2730:	00b42623          	sw	a1,12(s0)
    2734:	00467793          	and	a5,a2,4
    2738:	02000593          	li	a1,32
    273c:	00078463          	beqz	a5,2744 <.L37>
    2740:	03000593          	li	a1,48

00002744 <.L37>:
    2744:	000017b7          	lui	a5,0x1
    2748:	f0078793          	add	a5,a5,-256 # f00 <.LVL62+0x10>
    274c:	00f6f6b3          	and	a3,a3,a5
    2750:	ffb67613          	and	a2,a2,-5
    2754:	00100793          	li	a5,1
    2758:	00d66633          	or	a2,a2,a3
    275c:	00b42a23          	sw	a1,20(s0)
    2760:	00c42823          	sw	a2,16(s0)
    2764:	00f42e23          	sw	a5,28(s0)
    2768:	00074783          	lbu	a5,0(a4)
    276c:	00079e63          	bnez	a5,2788 <.L40>
    2770:	0004c703          	lbu	a4,0(s1)
    2774:	06d00793          	li	a5,109
    2778:	0cf71663          	bne	a4,a5,2844 <.L39>
    277c:	01400793          	li	a5,20
    2780:	02f42023          	sw	a5,32(s0)
    2784:	00042e23          	sw	zero,28(s0)

00002788 <.L40>:
    2788:	13305e63          	blez	s3,28c4 <.L43>
    278c:	01410b93          	add	s7,sp,20
    2790:	00810b13          	add	s6,sp,8
    2794:	00000a13          	li	s4,0
    2798:	00200d13          	li	s10,2
    279c:	00900d93          	li	s11,9
    27a0:	00800c93          	li	s9,8

000027a4 <.L49>:
    27a4:	114d4863          	blt	s10,s4,28b4 <.L44>
    27a8:	000b2783          	lw	a5,0(s6)
    27ac:	01440733          	add	a4,s0,s4
    27b0:	02f70223          	sb	a5,36(a4)
    27b4:	0ff7f793          	zext.b	a5,a5

000027b8 <.L45>:
    27b8:	00f9d663          	bge	s3,a5,27c4 <.L46>
    27bc:	d6fdcae3          	blt	s11,a5,2530 <.L20>
    27c0:	00078993          	mv	s3,a5

000027c4 <.L46>:
    27c4:	000baa83          	lw	s5,0(s7)
    27c8:	039a8863          	beq	s5,s9,27f8 <.L47>
    27cc:	00279793          	sll	a5,a5,0x2
    27d0:	00f40933          	add	s2,s0,a5
    27d4:	02492503          	lw	a0,36(s2)
    27d8:	01950e63          	beq	a0,s9,27f4 <.L48>
    27dc:	01550c63          	beq	a0,s5,27f4 <.L48>
    27e0:	c2dff0ef          	jal	240c <_promoted_size>
    27e4:	00050c13          	mv	s8,a0
    27e8:	000a8513          	mv	a0,s5
    27ec:	c21ff0ef          	jal	240c <_promoted_size>
    27f0:	01854463          	blt	a0,s8,27f8 <.L47>

000027f4 <.L48>:
    27f4:	03592223          	sw	s5,36(s2)

000027f8 <.L47>:
    27f8:	01c42783          	lw	a5,28(s0)
    27fc:	001a0713          	add	a4,s4,1
    2800:	004b8b93          	add	s7,s7,4
    2804:	004b0b13          	add	s6,s6,4
    2808:	0b47d263          	bge	a5,s4,28ac <.L59>

0000280c <.L50>:
    280c:	01c42503          	lw	a0,28(s0)
    2810:	00148493          	add	s1,s1,1
    2814:	01342c23          	sw	s3,24(s0)
    2818:	00942023          	sw	s1,0(s0)
    281c:	00250513          	add	a0,a0,2
    2820:	d15ff06f          	j	2534 <.L5>

00002824 <.L28>:
    2824:	00174503          	lbu	a0,1(a4)
    2828:	00170713          	add	a4,a4,1
    282c:	e40514e3          	bnez	a0,2674 <.L30>
    2830:	e51ff06f          	j	2680 <.L29>

00002834 <.L32>:
    2834:	00174503          	lbu	a0,1(a4)
    2838:	00170713          	add	a4,a4,1
    283c:	e80510e3          	bnez	a0,26bc <.L36>
    2840:	ee5ff06f          	j	2724 <.L35>

00002844 <.L39>:
    2844:	01500793          	li	a5,21
    2848:	02f42023          	sw	a5,32(s0)
    284c:	0004c603          	lbu	a2,0(s1)
    2850:	00010717          	auipc	a4,0x10
    2854:	b5072703          	lw	a4,-1200(a4) # 123a0 <_custom_printf_spec>
    2858:	00a70693          	add	a3,a4,10
    285c:	00070793          	mv	a5,a4

00002860 <.L42>:
    2860:	0007c583          	lbu	a1,0(a5)
    2864:	02c59e63          	bne	a1,a2,28a0 <.L41>
    2868:	40e787b3          	sub	a5,a5,a4
    286c:	00279793          	sll	a5,a5,0x2
    2870:	00013717          	auipc	a4,0x13
    2874:	61870713          	add	a4,a4,1560 # 15e88 <_custom_printf_arginfo>
    2878:	00f707b3          	add	a5,a4,a5
    287c:	0007a783          	lw	a5,0(a5)
    2880:	01c10613          	add	a2,sp,28
    2884:	00500593          	li	a1,5
    2888:	00440513          	add	a0,s0,4
    288c:	000780e7          	jalr	a5
    2890:	00a42e23          	sw	a0,28(s0)
    2894:	00500793          	li	a5,5
    2898:	eea7d8e3          	bge	a5,a0,2788 <.L40>
    289c:	c95ff06f          	j	2530 <.L20>

000028a0 <.L41>:
    28a0:	00178793          	add	a5,a5,1
    28a4:	fad79ee3          	bne	a5,a3,2860 <.L42>
    28a8:	c89ff06f          	j	2530 <.L20>

000028ac <.L59>:
    28ac:	00070a13          	mv	s4,a4
    28b0:	ef5ff06f          	j	27a4 <.L49>

000028b4 <.L44>:
    28b4:	01012703          	lw	a4,16(sp)
    28b8:	ffea0793          	add	a5,s4,-2
    28bc:	00e787b3          	add	a5,a5,a4
    28c0:	ef9ff06f          	j	27b8 <.L45>

000028c4 <.L43>:
    28c4:	01c42603          	lw	a2,28(s0)
    28c8:	00100793          	li	a5,1
    28cc:	02f40323          	sb	a5,38(s0)
    28d0:	00261613          	sll	a2,a2,0x2
    28d4:	01c10593          	add	a1,sp,28
    28d8:	02840513          	add	a0,s0,40
    28dc:	214000ef          	jal	2af0 <__GI_memcpy>
    28e0:	f2dff06f          	j	280c <.L50>

000028e4 <.L14>:
    28e4:	c53046e3          	bgtz	s3,2530 <.L20>

000028e8 <.L19>:
    28e8:	0006c583          	lbu	a1,0(a3)
    28ec:	00000993          	li	s3,0
    28f0:	cae6fae3          	bgeu	a3,a4,25a4 <.L18>
    28f4:	cf5592e3          	bne	a1,s5,25d8 <.L12>
    28f8:	cadff06f          	j	25a4 <.L18>

000028fc <__GI___fputc_unlocked>:
    28fc:	0105a783          	lw	a5,16(a1)
    2900:	01c5a703          	lw	a4,28(a1)
    2904:	fe010113          	add	sp,sp,-32
    2908:	00812c23          	sw	s0,24(sp)
    290c:	00912a23          	sw	s1,20(sp)
    2910:	00112e23          	sw	ra,28(sp)
    2914:	00050493          	mv	s1,a0
    2918:	00058413          	mv	s0,a1
    291c:	02e7f463          	bgeu	a5,a4,2944 <.L2>
    2920:	00178713          	add	a4,a5,1
    2924:	00e5a823          	sw	a4,16(a1)
    2928:	00a78023          	sb	a0,0(a5)

0000292c <.L5>:
    292c:	0ff4f513          	zext.b	a0,s1

00002930 <.L1>:
    2930:	01c12083          	lw	ra,28(sp)
    2934:	01812403          	lw	s0,24(sp)
    2938:	01412483          	lw	s1,20(sp)
    293c:	02010113          	add	sp,sp,32
    2940:	00008067          	ret

00002944 <.L2>:
    2944:	0005d783          	lhu	a5,0(a1)
    2948:	0407f793          	and	a5,a5,64
    294c:	06078463          	beqz	a5,29b4 <.L4>

00002950 <.L7>:
    2950:	00442703          	lw	a4,4(s0)
    2954:	ffd00793          	li	a5,-3
    2958:	fcf70ae3          	beq	a4,a5,292c <.L5>
    295c:	00c42783          	lw	a5,12(s0)
    2960:	00842703          	lw	a4,8(s0)
    2964:	06e78a63          	beq	a5,a4,29d8 <.L9>
    2968:	01042703          	lw	a4,16(s0)
    296c:	04e78e63          	beq	a5,a4,29c8 <.L10>

00002970 <.L14>:
    2970:	01042783          	lw	a5,16(s0)
    2974:	00178713          	add	a4,a5,1
    2978:	00e42823          	sw	a4,16(s0)
    297c:	0ff4f713          	zext.b	a4,s1
    2980:	00e78023          	sb	a4,0(a5)
    2984:	00045783          	lhu	a5,0(s0)
    2988:	1007f793          	and	a5,a5,256
    298c:	fa0780e3          	beqz	a5,292c <.L5>
    2990:	00a00793          	li	a5,10
    2994:	f8f71ce3          	bne	a4,a5,292c <.L5>
    2998:	00040513          	mv	a0,s0
    299c:	ffdfe0ef          	jal	1998 <__stdio_wcommit>
    29a0:	f80506e3          	beqz	a0,292c <.L5>
    29a4:	01042783          	lw	a5,16(s0)
    29a8:	fff78793          	add	a5,a5,-1
    29ac:	00f42823          	sw	a5,16(s0)
    29b0:	0100006f          	j	29c0 <.L8>

000029b4 <.L4>:
    29b4:	00058513          	mv	a0,a1
    29b8:	530020ef          	jal	4ee8 <__stdio_trans2w>
    29bc:	f8050ae3          	beqz	a0,2950 <.L7>

000029c0 <.L8>:
    29c0:	fff00513          	li	a0,-1
    29c4:	f6dff06f          	j	2930 <.L1>

000029c8 <.L10>:
    29c8:	00040513          	mv	a0,s0
    29cc:	fcdfe0ef          	jal	1998 <__stdio_wcommit>
    29d0:	fa0500e3          	beqz	a0,2970 <.L14>
    29d4:	fedff06f          	j	29c0 <.L8>

000029d8 <.L9>:
    29d8:	00100613          	li	a2,1
    29dc:	00f10593          	add	a1,sp,15
    29e0:	00040513          	mv	a0,s0
    29e4:	009107a3          	sb	s1,15(sp)
    29e8:	7dd010ef          	jal	49c4 <__stdio_WRITE>
    29ec:	f40510e3          	bnez	a0,292c <.L5>
    29f0:	fd1ff06f          	j	29c0 <.L8>

000029f4 <__GI_fputs>:
    29f4:	fe010113          	add	sp,sp,-32
    29f8:	00812c23          	sw	s0,24(sp)
    29fc:	00912a23          	sw	s1,20(sp)
    2a00:	00112e23          	sw	ra,28(sp)
    2a04:	00050493          	mv	s1,a0
    2a08:	00b12623          	sw	a1,12(sp)
    2a0c:	430000ef          	jal	2e3c <__GI_strlen>
    2a10:	00c12683          	lw	a3,12(sp)
    2a14:	00050413          	mv	s0,a0
    2a18:	00050613          	mv	a2,a0
    2a1c:	00100593          	li	a1,1
    2a20:	00048513          	mv	a0,s1
    2a24:	020000ef          	jal	2a44 <__GI_fwrite>
    2a28:	00850463          	beq	a0,s0,2a30 <.L1>
    2a2c:	fff00513          	li	a0,-1

00002a30 <.L1>:
    2a30:	01c12083          	lw	ra,28(sp)
    2a34:	01812403          	lw	s0,24(sp)
    2a38:	01412483          	lw	s1,20(sp)
    2a3c:	02010113          	add	sp,sp,32
    2a40:	00008067          	ret

00002a44 <__GI_fwrite>:
    2a44:	0006d783          	lhu	a5,0(a3)
    2a48:	fe010113          	add	sp,sp,-32
    2a4c:	00812c23          	sw	s0,24(sp)
    2a50:	00912a23          	sw	s1,20(sp)
    2a54:	01212823          	sw	s2,16(sp)
    2a58:	01312623          	sw	s3,12(sp)
    2a5c:	00112e23          	sw	ra,28(sp)
    2a60:	0407f793          	and	a5,a5,64
    2a64:	00050993          	mv	s3,a0
    2a68:	00058493          	mv	s1,a1
    2a6c:	00060913          	mv	s2,a2
    2a70:	00068413          	mv	s0,a3
    2a74:	02078463          	beqz	a5,2a9c <.L2>

00002a78 <.L5>:
    2a78:	02049a63          	bnez	s1,2aac <.L3>

00002a7c <.L10>:
    2a7c:	00000513          	li	a0,0

00002a80 <.L1>:
    2a80:	01c12083          	lw	ra,28(sp)
    2a84:	01812403          	lw	s0,24(sp)
    2a88:	01412483          	lw	s1,20(sp)
    2a8c:	01012903          	lw	s2,16(sp)
    2a90:	00c12983          	lw	s3,12(sp)
    2a94:	02010113          	add	sp,sp,32
    2a98:	00008067          	ret

00002a9c <.L2>:
    2a9c:	00068513          	mv	a0,a3
    2aa0:	448020ef          	jal	4ee8 <__stdio_trans2w>
    2aa4:	fc050ae3          	beqz	a0,2a78 <.L5>
    2aa8:	fd5ff06f          	j	2a7c <.L10>

00002aac <.L3>:
    2aac:	fc0908e3          	beqz	s2,2a7c <.L10>
    2ab0:	0324b7b3          	mulhu	a5,s1,s2
    2ab4:	00079e63          	bnez	a5,2ad0 <.L9>
    2ab8:	032485b3          	mul	a1,s1,s2
    2abc:	00040613          	mv	a2,s0
    2ac0:	00098513          	mv	a0,s3
    2ac4:	2d4020ef          	jal	4d98 <__stdio_fwrite>
    2ac8:	02955533          	divu	a0,a0,s1
    2acc:	fb5ff06f          	j	2a80 <.L1>

00002ad0 <.L9>:
    2ad0:	00045783          	lhu	a5,0(s0)
    2ad4:	01600713          	li	a4,22
    2ad8:	0087e793          	or	a5,a5,8
    2adc:	00f41023          	sh	a5,0(s0)
    2ae0:	0000d797          	auipc	a5,0xd
    2ae4:	7b47a783          	lw	a5,1972(a5) # 10294 <_GLOBAL_OFFSET_TABLE_+0xc>
    2ae8:	00e7a023          	sw	a4,0(a5)
    2aec:	f91ff06f          	j	2a7c <.L10>

00002af0 <__GI_memcpy>:
    2af0:	00f00713          	li	a4,15
    2af4:	00050693          	mv	a3,a0
    2af8:	00058793          	mv	a5,a1
    2afc:	16c77a63          	bgeu	a4,a2,2c70 <.L2>
    2b00:	40a007b3          	neg	a5,a0
    2b04:	0037f793          	and	a5,a5,3
    2b08:	40f60633          	sub	a2,a2,a5
    2b0c:	00000713          	li	a4,0

00002b10 <.L3>:
    2b10:	04e79463          	bne	a5,a4,2b58 <.L4>
    2b14:	00f585b3          	add	a1,a1,a5
    2b18:	00f508b3          	add	a7,a0,a5
    2b1c:	0035fe13          	and	t3,a1,3
    2b20:	00088793          	mv	a5,a7
    2b24:	00265713          	srl	a4,a2,0x2
    2b28:	140e1a63          	bnez	t3,2c7c <.L5>
    2b2c:	00777693          	and	a3,a4,7
    2b30:	fff68693          	add	a3,a3,-1
    2b34:	00600313          	li	t1,6
    2b38:	0005a803          	lw	a6,0(a1)
    2b3c:	0ed36863          	bltu	t1,a3,2c2c <.L6>
    2b40:	9ac18313          	add	t1,gp,-1620 # 104cc <.L8>
    2b44:	00269693          	sll	a3,a3,0x2
    2b48:	006686b3          	add	a3,a3,t1
    2b4c:	0006a683          	lw	a3,0(a3)
    2b50:	006686b3          	add	a3,a3,t1
    2b54:	00068067          	jr	a3

00002b58 <.L4>:
    2b58:	00e586b3          	add	a3,a1,a4
    2b5c:	0006c803          	lbu	a6,0(a3)
    2b60:	00e506b3          	add	a3,a0,a4
    2b64:	00170713          	add	a4,a4,1
    2b68:	01068023          	sb	a6,0(a3)
    2b6c:	fa5ff06f          	j	2b10 <.L3>

00002b70 <.L13>:
    2b70:	fe858693          	add	a3,a1,-24
    2b74:	fe488793          	add	a5,a7,-28
    2b78:	00670713          	add	a4,a4,6

00002b7c <.L15>:
    2b7c:	01c6a303          	lw	t1,28(a3)
    2b80:	ff870713          	add	a4,a4,-8
    2b84:	0107ae23          	sw	a6,28(a5)
    2b88:	02078813          	add	a6,a5,32
    2b8c:	0c070863          	beqz	a4,2c5c <.L23>
    2b90:	00080793          	mv	a5,a6
    2b94:	02068693          	add	a3,a3,32
    2b98:	00030813          	mv	a6,t1
    2b9c:	0b00006f          	j	2c4c <.L22>

00002ba0 <.L12>:
    2ba0:	fec58693          	add	a3,a1,-20
    2ba4:	fe888793          	add	a5,a7,-24
    2ba8:	00570713          	add	a4,a4,5

00002bac <.L16>:
    2bac:	0186a303          	lw	t1,24(a3)
    2bb0:	0107ac23          	sw	a6,24(a5)
    2bb4:	00030813          	mv	a6,t1
    2bb8:	fc5ff06f          	j	2b7c <.L15>

00002bbc <.L11>:
    2bbc:	ff058693          	add	a3,a1,-16
    2bc0:	fec88793          	add	a5,a7,-20
    2bc4:	00470713          	add	a4,a4,4

00002bc8 <.L17>:
    2bc8:	0146a303          	lw	t1,20(a3)
    2bcc:	0107aa23          	sw	a6,20(a5)
    2bd0:	00030813          	mv	a6,t1
    2bd4:	fd9ff06f          	j	2bac <.L16>

00002bd8 <.L10>:
    2bd8:	ff458693          	add	a3,a1,-12
    2bdc:	ff088793          	add	a5,a7,-16
    2be0:	00370713          	add	a4,a4,3

00002be4 <.L18>:
    2be4:	0106a303          	lw	t1,16(a3)
    2be8:	0107a823          	sw	a6,16(a5)
    2bec:	00030813          	mv	a6,t1
    2bf0:	fd9ff06f          	j	2bc8 <.L17>

00002bf4 <.L9>:
    2bf4:	ff858693          	add	a3,a1,-8
    2bf8:	ff488793          	add	a5,a7,-12
    2bfc:	00270713          	add	a4,a4,2

00002c00 <.L19>:
    2c00:	00c6a303          	lw	t1,12(a3)
    2c04:	0107a623          	sw	a6,12(a5)
    2c08:	00030813          	mv	a6,t1
    2c0c:	fd9ff06f          	j	2be4 <.L18>

00002c10 <.L7>:
    2c10:	ffc58693          	add	a3,a1,-4
    2c14:	ff888793          	add	a5,a7,-8
    2c18:	00170713          	add	a4,a4,1

00002c1c <.L20>:
    2c1c:	0086a303          	lw	t1,8(a3)
    2c20:	0107a423          	sw	a6,8(a5)
    2c24:	00030813          	mv	a6,t1
    2c28:	fd9ff06f          	j	2c00 <.L19>

00002c2c <.L6>:
    2c2c:	00058693          	mv	a3,a1
    2c30:	ffc88793          	add	a5,a7,-4

00002c34 <.L21>:
    2c34:	0046a303          	lw	t1,4(a3)
    2c38:	0107a223          	sw	a6,4(a5)
    2c3c:	00030813          	mv	a6,t1
    2c40:	fddff06f          	j	2c1c <.L20>

00002c44 <.L14>:
    2c44:	00458693          	add	a3,a1,4
    2c48:	fff70713          	add	a4,a4,-1

00002c4c <.L22>:
    2c4c:	0006a303          	lw	t1,0(a3)
    2c50:	0107a023          	sw	a6,0(a5)
    2c54:	00030813          	mv	a6,t1
    2c58:	fddff06f          	j	2c34 <.L21>

00002c5c <.L23>:
    2c5c:	0267a023          	sw	t1,32(a5)

00002c60 <.L24>:
    2c60:	ffc67693          	and	a3,a2,-4
    2c64:	00b687b3          	add	a5,a3,a1
    2c68:	00367613          	and	a2,a2,3
    2c6c:	011686b3          	add	a3,a3,a7

00002c70 <.L2>:
    2c70:	00000713          	li	a4,0

00002c74 <.L34>:
    2c74:	10e61663          	bne	a2,a4,2d80 <.L35>
    2c78:	00008067          	ret

00002c7c <.L5>:
    2c7c:	ffc5fe93          	and	t4,a1,-4
    2c80:	003e1e13          	sll	t3,t3,0x3
    2c84:	02000f93          	li	t6,32
    2c88:	00377f13          	and	t5,a4,3
    2c8c:	00200293          	li	t0,2
    2c90:	000ea683          	lw	a3,0(t4)
    2c94:	004ea803          	lw	a6,4(t4)
    2c98:	41cf8fb3          	sub	t6,t6,t3
    2c9c:	004e8313          	add	t1,t4,4
    2ca0:	025f0c63          	beq	t5,t0,2cd8 <.L25>
    2ca4:	00300293          	li	t0,3
    2ca8:	065f0863          	beq	t5,t0,2d18 <.L26>
    2cac:	00100293          	li	t0,1
    2cb0:	085f0a63          	beq	t5,t0,2d44 <.L27>
    2cb4:	ffc88793          	add	a5,a7,-4

00002cb8 <.L31>:
    2cb8:	00432e83          	lw	t4,4(t1)
    2cbc:	01f81f33          	sll	t5,a6,t6
    2cc0:	01c6d6b3          	srl	a3,a3,t3
    2cc4:	01e6e6b3          	or	a3,a3,t5
    2cc8:	00d7a223          	sw	a3,4(a5)
    2ccc:	00080693          	mv	a3,a6
    2cd0:	000e8813          	mv	a6,t4
    2cd4:	0500006f          	j	2d24 <.L30>

00002cd8 <.L25>:
    2cd8:	ffce8313          	add	t1,t4,-4
    2cdc:	ff488793          	add	a5,a7,-12
    2ce0:	00270713          	add	a4,a4,2

00002ce4 <.L29>:
    2ce4:	01c6d6b3          	srl	a3,a3,t3
    2ce8:	01f81f33          	sll	t5,a6,t6
    2cec:	01e6e6b3          	or	a3,a3,t5
    2cf0:	00c32e83          	lw	t4,12(t1)
    2cf4:	ffc70713          	add	a4,a4,-4
    2cf8:	00d7a623          	sw	a3,12(a5)
    2cfc:	01078693          	add	a3,a5,16
    2d00:	06070663          	beqz	a4,2d6c <.L33>
    2d04:	00068793          	mv	a5,a3
    2d08:	01030313          	add	t1,t1,16
    2d0c:	00080693          	mv	a3,a6
    2d10:	000e8813          	mv	a6,t4
    2d14:	0380006f          	j	2d4c <.L32>

00002d18 <.L26>:
    2d18:	000e8313          	mv	t1,t4
    2d1c:	ff888793          	add	a5,a7,-8
    2d20:	00170713          	add	a4,a4,1

00002d24 <.L30>:
    2d24:	00832e83          	lw	t4,8(t1)
    2d28:	01f81f33          	sll	t5,a6,t6
    2d2c:	01c6d6b3          	srl	a3,a3,t3
    2d30:	01e6e6b3          	or	a3,a3,t5
    2d34:	00d7a423          	sw	a3,8(a5)
    2d38:	00080693          	mv	a3,a6
    2d3c:	000e8813          	mv	a6,t4
    2d40:	fa5ff06f          	j	2ce4 <.L29>

00002d44 <.L27>:
    2d44:	008e8313          	add	t1,t4,8
    2d48:	fff70713          	add	a4,a4,-1

00002d4c <.L32>:
    2d4c:	00032e83          	lw	t4,0(t1)
    2d50:	01f81f33          	sll	t5,a6,t6
    2d54:	01c6d6b3          	srl	a3,a3,t3
    2d58:	01e6e6b3          	or	a3,a3,t5
    2d5c:	00d7a023          	sw	a3,0(a5)
    2d60:	00080693          	mv	a3,a6
    2d64:	000e8813          	mv	a6,t4
    2d68:	f51ff06f          	j	2cb8 <.L31>

00002d6c <.L33>:
    2d6c:	01c85833          	srl	a6,a6,t3
    2d70:	01fe9eb3          	sll	t4,t4,t6
    2d74:	01d86833          	or	a6,a6,t4
    2d78:	0107a823          	sw	a6,16(a5)
    2d7c:	ee5ff06f          	j	2c60 <.L24>

00002d80 <.L35>:
    2d80:	00e785b3          	add	a1,a5,a4
    2d84:	0005c803          	lbu	a6,0(a1)
    2d88:	00e685b3          	add	a1,a3,a4
    2d8c:	00170713          	add	a4,a4,1
    2d90:	01058023          	sb	a6,0(a1)
    2d94:	ee1ff06f          	j	2c74 <.L34>

00002d98 <__GI_memset>:
    2d98:	00700713          	li	a4,7
    2d9c:	00050793          	mv	a5,a0
    2da0:	04c77263          	bgeu	a4,a2,2de4 <.L2>
    2da4:	010106b7          	lui	a3,0x1010
    2da8:	0ff5f713          	zext.b	a4,a1
    2dac:	10168693          	add	a3,a3,257 # 1010101 <_ebss+0xffa211>
    2db0:	02d70733          	mul	a4,a4,a3

00002db4 <.L3>:
    2db4:	0037f693          	and	a3,a5,3
    2db8:	02069c63          	bnez	a3,2df0 <.L4>
    2dbc:	00c50633          	add	a2,a0,a2
    2dc0:	40f60633          	sub	a2,a2,a5
    2dc4:	fe067813          	and	a6,a2,-32
    2dc8:	00f80833          	add	a6,a6,a5
    2dcc:	00080693          	mv	a3,a6

00002dd0 <.L5>:
    2dd0:	03079663          	bne	a5,a6,2dfc <.L6>
    2dd4:	01c67813          	and	a6,a2,28
    2dd8:	00f807b3          	add	a5,a6,a5

00002ddc <.L7>:
    2ddc:	04f69463          	bne	a3,a5,2e24 <.L8>
    2de0:	00367613          	and	a2,a2,3

00002de4 <.L2>:
    2de4:	00c78633          	add	a2,a5,a2

00002de8 <.L9>:
    2de8:	04c79463          	bne	a5,a2,2e30 <.L10>
    2dec:	00008067          	ret

00002df0 <.L4>:
    2df0:	00b78023          	sb	a1,0(a5)
    2df4:	00178793          	add	a5,a5,1
    2df8:	fbdff06f          	j	2db4 <.L3>

00002dfc <.L6>:
    2dfc:	00e7a023          	sw	a4,0(a5)
    2e00:	00e7a223          	sw	a4,4(a5)
    2e04:	00e7a423          	sw	a4,8(a5)
    2e08:	00e7a623          	sw	a4,12(a5)
    2e0c:	00e7a823          	sw	a4,16(a5)
    2e10:	00e7aa23          	sw	a4,20(a5)
    2e14:	00e7ac23          	sw	a4,24(a5)
    2e18:	00e7ae23          	sw	a4,28(a5)
    2e1c:	02078793          	add	a5,a5,32
    2e20:	fb1ff06f          	j	2dd0 <.L5>

00002e24 <.L8>:
    2e24:	00e6a023          	sw	a4,0(a3)
    2e28:	00468693          	add	a3,a3,4
    2e2c:	fb1ff06f          	j	2ddc <.L7>

00002e30 <.L10>:
    2e30:	00b78023          	sb	a1,0(a5)
    2e34:	00178793          	add	a5,a5,1
    2e38:	fb1ff06f          	j	2de8 <.L9>

00002e3c <__GI_strlen>:
    2e3c:	00050793          	mv	a5,a0

00002e40 <.L2>:
    2e40:	0037f713          	and	a4,a5,3
    2e44:	04071263          	bnez	a4,2e88 <.L5>
    2e48:	feff0637          	lui	a2,0xfeff0
    2e4c:	808085b7          	lui	a1,0x80808
    2e50:	eff60613          	add	a2,a2,-257 # fefefeff <_ebss+0xfefda00f>
    2e54:	08058593          	add	a1,a1,128 # 80808080 <_ebss+0x807f2190>

00002e58 <.L6>:
    2e58:	0007a683          	lw	a3,0(a5)
    2e5c:	00478713          	add	a4,a5,4
    2e60:	00c686b3          	add	a3,a3,a2
    2e64:	00b6f6b3          	and	a3,a3,a1
    2e68:	02068c63          	beqz	a3,2ea0 <.L7>
    2e6c:	ffc74683          	lbu	a3,-4(a4)
    2e70:	02068063          	beqz	a3,2e90 <.L14>
    2e74:	ffd74683          	lbu	a3,-3(a4)
    2e78:	02069863          	bnez	a3,2ea8 <.L9>
    2e7c:	40a787b3          	sub	a5,a5,a0
    2e80:	00178513          	add	a0,a5,1
    2e84:	00008067          	ret

00002e88 <.L5>:
    2e88:	0007c703          	lbu	a4,0(a5)
    2e8c:	00071663          	bnez	a4,2e98 <.L3>

00002e90 <.L14>:
    2e90:	40a78533          	sub	a0,a5,a0
    2e94:	00008067          	ret

00002e98 <.L3>:
    2e98:	00178793          	add	a5,a5,1
    2e9c:	fa5ff06f          	j	2e40 <.L2>

00002ea0 <.L7>:
    2ea0:	00070793          	mv	a5,a4
    2ea4:	fb5ff06f          	j	2e58 <.L6>

00002ea8 <.L9>:
    2ea8:	ffe74683          	lbu	a3,-2(a4)
    2eac:	00069863          	bnez	a3,2ebc <.L10>
    2eb0:	40a787b3          	sub	a5,a5,a0
    2eb4:	00278513          	add	a0,a5,2
    2eb8:	00008067          	ret

00002ebc <.L10>:
    2ebc:	fff74683          	lbu	a3,-1(a4)
    2ec0:	fe0690e3          	bnez	a3,2ea0 <.L7>
    2ec4:	40a787b3          	sub	a5,a5,a0
    2ec8:	00378513          	add	a0,a5,3
    2ecc:	00008067          	ret

00002ed0 <__GI_strnlen>:
    2ed0:	00050713          	mv	a4,a0
    2ed4:	00058513          	mv	a0,a1
    2ed8:	06058a63          	beqz	a1,2f4c <.L2>
    2edc:	00b705b3          	add	a1,a4,a1
    2ee0:	00e5f463          	bgeu	a1,a4,2ee8 <.L3>
    2ee4:	fff00593          	li	a1,-1

00002ee8 <.L3>:
    2ee8:	00070793          	mv	a5,a4

00002eec <.L4>:
    2eec:	0037f693          	and	a3,a5,3
    2ef0:	04069463          	bnez	a3,2f38 <.L7>
    2ef4:	feff0537          	lui	a0,0xfeff0
    2ef8:	80808837          	lui	a6,0x80808
    2efc:	00078693          	mv	a3,a5
    2f00:	eff50513          	add	a0,a0,-257 # fefefeff <_ebss+0xfefda00f>
    2f04:	08080813          	add	a6,a6,128 # 80808080 <_ebss+0x807f2190>

00002f08 <.L8>:
    2f08:	02b6fc63          	bgeu	a3,a1,2f40 <.L10>
    2f0c:	0006a783          	lw	a5,0(a3)
    2f10:	00468613          	add	a2,a3,4
    2f14:	00a787b3          	add	a5,a5,a0
    2f18:	0107f7b3          	and	a5,a5,a6
    2f1c:	04078e63          	beqz	a5,2f78 <.L18>
    2f20:	ffc64783          	lbu	a5,-4(a2)
    2f24:	06078063          	beqz	a5,2f84 <.L17>
    2f28:	ffd64783          	lbu	a5,-3(a2)
    2f2c:	02079663          	bnez	a5,2f58 <.L11>
    2f30:	00168793          	add	a5,a3,1
    2f34:	00c0006f          	j	2f40 <.L10>

00002f38 <.L7>:
    2f38:	0007c683          	lbu	a3,0(a5)
    2f3c:	00069a63          	bnez	a3,2f50 <.L5>

00002f40 <.L10>:
    2f40:	00b7f463          	bgeu	a5,a1,2f48 <.L14>
    2f44:	00078593          	mv	a1,a5

00002f48 <.L14>:
    2f48:	40e58533          	sub	a0,a1,a4

00002f4c <.L2>:
    2f4c:	00008067          	ret

00002f50 <.L5>:
    2f50:	00178793          	add	a5,a5,1
    2f54:	f99ff06f          	j	2eec <.L4>

00002f58 <.L11>:
    2f58:	ffe64783          	lbu	a5,-2(a2)
    2f5c:	00079663          	bnez	a5,2f68 <.L12>
    2f60:	00268793          	add	a5,a3,2
    2f64:	fddff06f          	j	2f40 <.L10>

00002f68 <.L12>:
    2f68:	fff64783          	lbu	a5,-1(a2)
    2f6c:	00079663          	bnez	a5,2f78 <.L18>
    2f70:	00368793          	add	a5,a3,3
    2f74:	fcdff06f          	j	2f40 <.L10>

00002f78 <.L18>:
    2f78:	00058793          	mv	a5,a1
    2f7c:	00060693          	mv	a3,a2
    2f80:	f89ff06f          	j	2f08 <.L8>

00002f84 <.L17>:
    2f84:	00068793          	mv	a5,a3
    2f88:	fb9ff06f          	j	2f40 <.L10>

00002f8c <__GI___glibc_strerror_r>:
    2f8c:	ff010113          	add	sp,sp,-16
    2f90:	00812423          	sw	s0,8(sp)
    2f94:	00112623          	sw	ra,12(sp)
    2f98:	00058413          	mv	s0,a1
    2f9c:	018000ef          	jal	2fb4 <__GI___xpg_strerror_r>
    2fa0:	00c12083          	lw	ra,12(sp)
    2fa4:	00040513          	mv	a0,s0
    2fa8:	00812403          	lw	s0,8(sp)
    2fac:	01010113          	add	sp,sp,16
    2fb0:	00008067          	ret

00002fb4 <__GI___xpg_strerror_r>:
    2fb4:	fa010113          	add	sp,sp,-96
    2fb8:	05312623          	sw	s3,76(sp)
    2fbc:	05412423          	sw	s4,72(sp)
    2fc0:	04112e23          	sw	ra,92(sp)
    2fc4:	04812c23          	sw	s0,88(sp)
    2fc8:	04912a23          	sw	s1,84(sp)
    2fcc:	05212823          	sw	s2,80(sp)
    2fd0:	07c00793          	li	a5,124
    2fd4:	00058993          	mv	s3,a1
    2fd8:	00060a13          	mv	s4,a2
    2fdc:	08a7f463          	bgeu	a5,a0,3064 <.L13>

00002fe0 <.L3>:
    2fe0:	00050593          	mv	a1,a0
    2fe4:	41f55613          	sra	a2,a0,0x1f
    2fe8:	00000713          	li	a4,0
    2fec:	ff600693          	li	a3,-10
    2ff0:	03d10513          	add	a0,sp,61
    2ff4:	080020ef          	jal	5074 <_uintmaxtostr>
    2ff8:	ff250913          	add	s2,a0,-14
    2ffc:	00e00613          	li	a2,14
    3000:	0000f597          	auipc	a1,0xf
    3004:	f8458593          	add	a1,a1,-124 # 11f84 <unknown.0>
    3008:	00090513          	mv	a0,s2
    300c:	ae5ff0ef          	jal	2af0 <__GI_memcpy>
    3010:	01600493          	li	s1,22
    3014:	01c0006f          	j	3030 <.L6>

00003018 <.L5>:
    3018:	00079463          	bnez	a5,3020 <.L4>
    301c:	fff48493          	add	s1,s1,-1

00003020 <.L4>:
    3020:	00190913          	add	s2,s2,1

00003024 <.L2>:
    3024:	00094783          	lbu	a5,0(s2)
    3028:	fe0498e3          	bnez	s1,3018 <.L5>
    302c:	fa078ae3          	beqz	a5,2fe0 <.L3>

00003030 <.L6>:
    3030:	00099463          	bnez	s3,3038 <.L7>
    3034:	00000a13          	li	s4,0

00003038 <.L7>:
    3038:	00090513          	mv	a0,s2
    303c:	e01ff0ef          	jal	2e3c <__GI_strlen>
    3040:	00150413          	add	s0,a0,1
    3044:	028a7863          	bgeu	s4,s0,3074 <.L8>
    3048:	000a0413          	mv	s0,s4
    304c:	02200493          	li	s1,34
    3050:	020a1463          	bnez	s4,3078 <.L9>

00003054 <.L10>:
    3054:	0000d797          	auipc	a5,0xd
    3058:	2407a783          	lw	a5,576(a5) # 10294 <_GLOBAL_OFFSET_TABLE_+0xc>
    305c:	0097a023          	sw	s1,0(a5)
    3060:	0340006f          	j	3094 <.L1>

00003064 <.L13>:
    3064:	00050493          	mv	s1,a0
    3068:	0000d917          	auipc	s2,0xd
    306c:	48090913          	add	s2,s2,1152 # 104e8 <_string_syserrmsgs>
    3070:	fb5ff06f          	j	3024 <.L2>

00003074 <.L8>:
    3074:	00040e63          	beqz	s0,3090 <.L11>

00003078 <.L9>:
    3078:	00098513          	mv	a0,s3
    307c:	00040613          	mv	a2,s0
    3080:	00090593          	mv	a1,s2
    3084:	008989b3          	add	s3,s3,s0
    3088:	a69ff0ef          	jal	2af0 <__GI_memcpy>
    308c:	fe098fa3          	sb	zero,-1(s3)

00003090 <.L11>:
    3090:	fc0492e3          	bnez	s1,3054 <.L10>

00003094 <.L1>:
    3094:	05c12083          	lw	ra,92(sp)
    3098:	05812403          	lw	s0,88(sp)
    309c:	05012903          	lw	s2,80(sp)
    30a0:	04c12983          	lw	s3,76(sp)
    30a4:	04812a03          	lw	s4,72(sp)
    30a8:	00048513          	mv	a0,s1
    30ac:	05412483          	lw	s1,84(sp)
    30b0:	06010113          	add	sp,sp,96
    30b4:	00008067          	ret

000030b8 <__GI_isatty>:
    30b8:	fb010113          	add	sp,sp,-80
    30bc:	00410593          	add	a1,sp,4
    30c0:	04112623          	sw	ra,76(sp)
    30c4:	014000ef          	jal	30d8 <__GI_tcgetattr>
    30c8:	04c12083          	lw	ra,76(sp)
    30cc:	00153513          	seqz	a0,a0
    30d0:	05010113          	add	sp,sp,80
    30d4:	00008067          	ret

000030d8 <__GI_tcgetattr>:
    30d8:	fc010113          	add	sp,sp,-64
    30dc:	02812c23          	sw	s0,56(sp)
    30e0:	00058413          	mv	s0,a1
    30e4:	000055b7          	lui	a1,0x5
    30e8:	00c10613          	add	a2,sp,12
    30ec:	40158593          	add	a1,a1,1025 # 5401 <.L12+0x9>
    30f0:	02912a23          	sw	s1,52(sp)
    30f4:	02112e23          	sw	ra,60(sp)
    30f8:	d9cfe0ef          	jal	1694 <__GI_ioctl>
    30fc:	00050493          	mv	s1,a0
    3100:	04051463          	bnez	a0,3148 <.L1>
    3104:	00c12783          	lw	a5,12(sp)
    3108:	01300613          	li	a2,19
    310c:	01d10593          	add	a1,sp,29
    3110:	00f42023          	sw	a5,0(s0)
    3114:	01012783          	lw	a5,16(sp)
    3118:	01140513          	add	a0,s0,17
    311c:	00f42223          	sw	a5,4(s0)
    3120:	01412783          	lw	a5,20(sp)
    3124:	00f42423          	sw	a5,8(s0)
    3128:	01812783          	lw	a5,24(sp)
    312c:	00f42623          	sw	a5,12(s0)
    3130:	01c14783          	lbu	a5,28(sp)
    3134:	00f40823          	sb	a5,16(s0)
    3138:	769020ef          	jal	60a0 <__GI_mempcpy>
    313c:	00d00613          	li	a2,13
    3140:	00000593          	li	a1,0
    3144:	c55ff0ef          	jal	2d98 <__GI_memset>

00003148 <.L1>:
    3148:	03c12083          	lw	ra,60(sp)
    314c:	03812403          	lw	s0,56(sp)
    3150:	00048513          	mv	a0,s1
    3154:	03412483          	lw	s1,52(sp)
    3158:	04010113          	add	sp,sp,64
    315c:	00008067          	ret

00003160 <__malloc_from_heap>:
    3160:	fd010113          	add	sp,sp,-48
    3164:	01412c23          	sw	s4,24(sp)
    3168:	01512a23          	sw	s5,20(sp)
    316c:	00058a13          	mv	s4,a1
    3170:	00850513          	add	a0,a0,8
    3174:	00c10a93          	add	s5,sp,12
    3178:	00a12623          	sw	a0,12(sp)
    317c:	000a8593          	mv	a1,s5
    3180:	000a0513          	mv	a0,s4
    3184:	03212023          	sw	s2,32(sp)
    3188:	02112623          	sw	ra,44(sp)
    318c:	02812423          	sw	s0,40(sp)
    3190:	02912223          	sw	s1,36(sp)
    3194:	01312e23          	sw	s3,28(sp)
    3198:	354000ef          	jal	34ec <__heap_alloc>
    319c:	00050913          	mv	s2,a0
    31a0:	0a051863          	bnez	a0,3250 <.L2>
    31a4:	00050493          	mv	s1,a0
    31a8:	01e00513          	li	a0,30
    31ac:	04d000ef          	jal	39f8 <__GI_sysconf>
    31b0:	00c12783          	lw	a5,12(sp)
    31b4:	0ca7f863          	bgeu	a5,a0,3284 <.L3>
    31b8:	01e00513          	li	a0,30
    31bc:	03d000ef          	jal	39f8 <__GI_sysconf>
    31c0:	00050413          	mv	s0,a0

000031c4 <.L4>:
    31c4:	040006b7          	lui	a3,0x4000
    31c8:	00000793          	li	a5,0
    31cc:	00000713          	li	a4,0
    31d0:	02168693          	add	a3,a3,33 # 4000021 <_ebss+0x3fea131>
    31d4:	00300613          	li	a2,3
    31d8:	00040593          	mv	a1,s0
    31dc:	00000513          	li	a0,0
    31e0:	7ed000ef          	jal	41cc <__GI_mmap>
    31e4:	fff00793          	li	a5,-1
    31e8:	00050993          	mv	s3,a0
    31ec:	06f50863          	beq	a0,a5,325c <.L1>
    31f0:	00040613          	mv	a2,s0
    31f4:	00050593          	mv	a1,a0
    31f8:	000a0513          	mv	a0,s4
    31fc:	378000ef          	jal	3574 <__heap_free>
    3200:	000a8593          	mv	a1,s5
    3204:	000a0513          	mv	a0,s4
    3208:	2e4000ef          	jal	34ec <__heap_alloc>
    320c:	00050913          	mv	s2,a0
    3210:	0000d597          	auipc	a1,0xd
    3214:	0c45a583          	lw	a1,196(a1) # 102d4 <.LLST90+0x2f>
    3218:	00c00513          	li	a0,12
    321c:	f45ff0ef          	jal	3160 <__malloc_from_heap>
    3220:	0000d617          	auipc	a2,0xd
    3224:	07c62603          	lw	a2,124(a2) # 1029c <_GLOBAL_OFFSET_TABLE_+0x14>
    3228:	00062703          	lw	a4,0(a2)
    322c:	00050793          	mv	a5,a0
    3230:	00000693          	li	a3,0

00003234 <.L7>:
    3234:	06071c63          	bnez	a4,32ac <.L9>

00003238 <.L8>:
    3238:	00e7a423          	sw	a4,8(a5)
    323c:	0137a023          	sw	s3,0(a5)
    3240:	0087a223          	sw	s0,4(a5)
    3244:	06068e63          	beqz	a3,32c0 <.L10>
    3248:	00f6a423          	sw	a5,8(a3)

0000324c <.L11>:
    324c:	00090863          	beqz	s2,325c <.L1>

00003250 <.L2>:
    3250:	00c12783          	lw	a5,12(sp)
    3254:	00890493          	add	s1,s2,8
    3258:	00f92023          	sw	a5,0(s2)

0000325c <.L1>:
    325c:	02c12083          	lw	ra,44(sp)
    3260:	02812403          	lw	s0,40(sp)
    3264:	02012903          	lw	s2,32(sp)
    3268:	01c12983          	lw	s3,28(sp)
    326c:	01812a03          	lw	s4,24(sp)
    3270:	01412a83          	lw	s5,20(sp)
    3274:	00048513          	mv	a0,s1
    3278:	02412483          	lw	s1,36(sp)
    327c:	03010113          	add	sp,sp,48
    3280:	00008067          	ret

00003284 <.L3>:
    3284:	01e00513          	li	a0,30
    3288:	770000ef          	jal	39f8 <__GI_sysconf>
    328c:	00c12903          	lw	s2,12(sp)
    3290:	fff90913          	add	s2,s2,-1
    3294:	00a90933          	add	s2,s2,a0
    3298:	01e00513          	li	a0,30
    329c:	75c000ef          	jal	39f8 <__GI_sysconf>
    32a0:	40a00433          	neg	s0,a0
    32a4:	01247433          	and	s0,s0,s2
    32a8:	f1dff06f          	j	31c4 <.L4>

000032ac <.L9>:
    32ac:	00072583          	lw	a1,0(a4)
    32b0:	f8b9e4e3          	bltu	s3,a1,3238 <.L8>
    32b4:	00070693          	mv	a3,a4
    32b8:	00872703          	lw	a4,8(a4)
    32bc:	f79ff06f          	j	3234 <.L7>

000032c0 <.L10>:
    32c0:	00f62023          	sw	a5,0(a2)
    32c4:	f89ff06f          	j	324c <.L11>

000032c8 <malloc>:
    32c8:	02050263          	beqz	a0,32ec <.L23>
    32cc:	ff000793          	li	a5,-16
    32d0:	02a7f063          	bgeu	a5,a0,32f0 <.L20>
    32d4:	0000d797          	auipc	a5,0xd
    32d8:	fc07a783          	lw	a5,-64(a5) # 10294 <_GLOBAL_OFFSET_TABLE_+0xc>
    32dc:	00c00713          	li	a4,12
    32e0:	00e7a023          	sw	a4,0(a5)
    32e4:	00000513          	li	a0,0
    32e8:	00008067          	ret

000032ec <.L23>:
    32ec:	00100513          	li	a0,1

000032f0 <.L20>:
    32f0:	ff010113          	add	sp,sp,-16
    32f4:	0000f597          	auipc	a1,0xf
    32f8:	0b058593          	add	a1,a1,176 # 123a4 <__malloc_heap>
    32fc:	00112623          	sw	ra,12(sp)
    3300:	e61ff0ef          	jal	3160 <__malloc_from_heap>
    3304:	00051c63          	bnez	a0,331c <.L19>
    3308:	0000d797          	auipc	a5,0xd
    330c:	f8c7a783          	lw	a5,-116(a5) # 10294 <_GLOBAL_OFFSET_TABLE_+0xc>
    3310:	00c00713          	li	a4,12
    3314:	00e7a023          	sw	a4,0(a5)
    3318:	00000513          	li	a0,0

0000331c <.L19>:
    331c:	00c12083          	lw	ra,12(sp)
    3320:	01010113          	add	sp,sp,16
    3324:	00008067          	ret

00003328 <__free_to_heap>:
    3328:	1a050a63          	beqz	a0,34dc <.L25>
    332c:	fd010113          	add	sp,sp,-48
    3330:	ff852603          	lw	a2,-8(a0)
    3334:	03212023          	sw	s2,32(sp)
    3338:	00058913          	mv	s2,a1
    333c:	ff850593          	add	a1,a0,-8
    3340:	00090513          	mv	a0,s2
    3344:	02112623          	sw	ra,44(sp)
    3348:	02812423          	sw	s0,40(sp)
    334c:	02912223          	sw	s1,36(sp)
    3350:	01312e23          	sw	s3,28(sp)
    3354:	01412c23          	sw	s4,24(sp)
    3358:	01512a23          	sw	s5,20(sp)
    335c:	01612823          	sw	s6,16(sp)
    3360:	01712623          	sw	s7,12(sp)
    3364:	01812423          	sw	s8,8(sp)
    3368:	01912223          	sw	s9,4(sp)
    336c:	01a12023          	sw	s10,0(sp)
    3370:	204000ef          	jal	3574 <__heap_free>
    3374:	00052483          	lw	s1,0(a0)
    3378:	00050413          	mv	s0,a0
    337c:	01e00513          	li	a0,30
    3380:	678000ef          	jal	39f8 <__GI_sysconf>
    3384:	00351513          	sll	a0,a0,0x3
    3388:	10a4ee63          	bltu	s1,a0,34a4 <.L1>
    338c:	00042783          	lw	a5,0(s0)
    3390:	00c40993          	add	s3,s0,12
    3394:	40f407b3          	sub	a5,s0,a5
    3398:	00c78593          	add	a1,a5,12
    339c:	00442783          	lw	a5,4(s0)
    33a0:	00078663          	beqz	a5,33ac <.L5>
    33a4:	00842703          	lw	a4,8(s0)
    33a8:	00e7a423          	sw	a4,8(a5)

000033ac <.L5>:
    33ac:	00842703          	lw	a4,8(s0)
    33b0:	06070e63          	beqz	a4,342c <.L6>
    33b4:	00f72223          	sw	a5,4(a4)

000033b8 <.L7>:
    33b8:	0000dc17          	auipc	s8,0xd
    33bc:	ee4c2c03          	lw	s8,-284(s8) # 1029c <_GLOBAL_OFFSET_TABLE_+0x14>
    33c0:	000c2483          	lw	s1,0(s8)
    33c4:	00000a93          	li	s5,0
    33c8:	0000dc97          	auipc	s9,0xd
    33cc:	f0ccac83          	lw	s9,-244(s9) # 102d4 <.LLST90+0x2f>
    33d0:	03000d13          	li	s10,48

000033d4 <.L8>:
    33d4:	00048a63          	beqz	s1,33e8 <.L12>
    33d8:	0004a403          	lw	s0,0(s1)
    33dc:	0044ab83          	lw	s7,4(s1)
    33e0:	008b8a33          	add	s4,s7,s0
    33e4:	0549f863          	bgeu	s3,s4,3434 <.L17>

000033e8 <.L12>:
    33e8:	0b358e63          	beq	a1,s3,34a4 <.L1>
    33ec:	02812403          	lw	s0,40(sp)
    33f0:	02c12083          	lw	ra,44(sp)
    33f4:	02412483          	lw	s1,36(sp)
    33f8:	01812a03          	lw	s4,24(sp)
    33fc:	01412a83          	lw	s5,20(sp)
    3400:	01012b03          	lw	s6,16(sp)
    3404:	00c12b83          	lw	s7,12(sp)
    3408:	00812c03          	lw	s8,8(sp)
    340c:	00412c83          	lw	s9,4(sp)
    3410:	00012d03          	lw	s10,0(sp)
    3414:	40b98633          	sub	a2,s3,a1
    3418:	00090513          	mv	a0,s2
    341c:	01c12983          	lw	s3,28(sp)
    3420:	02012903          	lw	s2,32(sp)
    3424:	03010113          	add	sp,sp,48
    3428:	14c0006f          	j	3574 <__heap_free>

0000342c <.L6>:
    342c:	00f92023          	sw	a5,0(s2)
    3430:	f89ff06f          	j	33b8 <.L7>

00003434 <.L17>:
    3434:	0084ab03          	lw	s6,8(s1)
    3438:	06b46063          	bltu	s0,a1,3498 <.L9>
    343c:	00858663          	beq	a1,s0,3448 <.L10>
    3440:	40b407b3          	sub	a5,s0,a1
    3444:	04fd7a63          	bgeu	s10,a5,3498 <.L9>

00003448 <.L10>:
    3448:	01498663          	beq	s3,s4,3454 <.L11>
    344c:	030a0793          	add	a5,s4,48
    3450:	f8f9ece3          	bltu	s3,a5,33e8 <.L12>

00003454 <.L11>:
    3454:	00b40863          	beq	s0,a1,3464 <.L13>
    3458:	40b40633          	sub	a2,s0,a1
    345c:	00090513          	mv	a0,s2
    3460:	114000ef          	jal	3574 <__heap_free>

00003464 <.L13>:
    3464:	020a8663          	beqz	s5,3490 <.L14>
    3468:	016aa423          	sw	s6,8(s5)

0000346c <.L15>:
    346c:	000c8593          	mv	a1,s9
    3470:	00048513          	mv	a0,s1
    3474:	eb5ff0ef          	jal	3328 <__free_to_heap>
    3478:	000b8593          	mv	a1,s7
    347c:	00040513          	mv	a0,s0
    3480:	595000ef          	jal	4214 <__GI_munmap>

00003484 <.L16>:
    3484:	000b0493          	mv	s1,s6
    3488:	000a0593          	mv	a1,s4
    348c:	f49ff06f          	j	33d4 <.L8>

00003490 <.L14>:
    3490:	016c2023          	sw	s6,0(s8)
    3494:	fd9ff06f          	j	346c <.L15>

00003498 <.L9>:
    3498:	00048a93          	mv	s5,s1
    349c:	00058a13          	mv	s4,a1
    34a0:	fe5ff06f          	j	3484 <.L16>

000034a4 <.L1>:
    34a4:	02c12083          	lw	ra,44(sp)
    34a8:	02812403          	lw	s0,40(sp)
    34ac:	02412483          	lw	s1,36(sp)
    34b0:	02012903          	lw	s2,32(sp)
    34b4:	01c12983          	lw	s3,28(sp)
    34b8:	01812a03          	lw	s4,24(sp)
    34bc:	01412a83          	lw	s5,20(sp)
    34c0:	01012b03          	lw	s6,16(sp)
    34c4:	00c12b83          	lw	s7,12(sp)
    34c8:	00812c03          	lw	s8,8(sp)
    34cc:	00412c83          	lw	s9,4(sp)
    34d0:	00012d03          	lw	s10,0(sp)
    34d4:	03010113          	add	sp,sp,48
    34d8:	00008067          	ret

000034dc <.L25>:
    34dc:	00008067          	ret

000034e0 <free>:
    34e0:	0000f597          	auipc	a1,0xf
    34e4:	ec458593          	add	a1,a1,-316 # 123a4 <__malloc_heap>
    34e8:	e41ff06f          	j	3328 <__free_to_heap>

000034ec <__heap_alloc>:
    34ec:	0005a783          	lw	a5,0(a1)
    34f0:	00b00713          	li	a4,11
    34f4:	00050693          	mv	a3,a0
    34f8:	00778793          	add	a5,a5,7
    34fc:	ff87f793          	and	a5,a5,-8
    3500:	00f76463          	bltu	a4,a5,3508 <.L2>
    3504:	01000793          	li	a5,16

00003508 <.L2>:
    3508:	0006a503          	lw	a0,0(a3)

0000350c <.L3>:
    350c:	00051463          	bnez	a0,3514 <.L11>
    3510:	00008067          	ret

00003514 <.L11>:
    3514:	00052703          	lw	a4,0(a0)
    3518:	04f76a63          	bltu	a4,a5,356c <.L4>
    351c:	40e50633          	sub	a2,a0,a4
    3520:	03078813          	add	a6,a5,48
    3524:	00c60613          	add	a2,a2,12
    3528:	03077a63          	bgeu	a4,a6,355c <.L5>
    352c:	00452783          	lw	a5,4(a0)
    3530:	00078663          	beqz	a5,353c <.L6>
    3534:	00852803          	lw	a6,8(a0)
    3538:	0107a423          	sw	a6,8(a5)

0000353c <.L6>:
    353c:	00852503          	lw	a0,8(a0)
    3540:	00050a63          	beqz	a0,3554 <.L7>
    3544:	00f52223          	sw	a5,4(a0)

00003548 <.L9>:
    3548:	00e5a023          	sw	a4,0(a1)
    354c:	00060513          	mv	a0,a2
    3550:	00008067          	ret

00003554 <.L7>:
    3554:	00f6a023          	sw	a5,0(a3)
    3558:	ff1ff06f          	j	3548 <.L9>

0000355c <.L5>:
    355c:	40f70733          	sub	a4,a4,a5
    3560:	00e52023          	sw	a4,0(a0)
    3564:	00078713          	mv	a4,a5
    3568:	fe1ff06f          	j	3548 <.L9>

0000356c <.L4>:
    356c:	00452503          	lw	a0,4(a0)
    3570:	f9dff06f          	j	350c <.L3>

00003574 <__heap_free>:
    3574:	00050813          	mv	a6,a0
    3578:	00052503          	lw	a0,0(a0)
    357c:	00c58333          	add	t1,a1,a2
    3580:	00000793          	li	a5,0

00003584 <.L2>:
    3584:	02051863          	bnez	a0,35b4 <.L4>

00003588 <.L5>:
    3588:	ff460713          	add	a4,a2,-12
    358c:	00e585b3          	add	a1,a1,a4
    3590:	00c5a023          	sw	a2,0(a1)
    3594:	00a5a223          	sw	a0,4(a1)
    3598:	00f5a423          	sw	a5,8(a1)
    359c:	0c078e63          	beqz	a5,3678 <.L17>
    35a0:	00b7a223          	sw	a1,4(a5)

000035a4 <.L18>:
    35a4:	00050463          	beqz	a0,35ac <.L19>
    35a8:	00b52423          	sw	a1,8(a0)

000035ac <.L19>:
    35ac:	00058513          	mv	a0,a1
    35b0:	00008067          	ret

000035b4 <.L4>:
    35b4:	00c50713          	add	a4,a0,12
    35b8:	00b77863          	bgeu	a4,a1,35c8 <.L3>
    35bc:	00050793          	mv	a5,a0
    35c0:	00452503          	lw	a0,4(a0)
    35c4:	fc1ff06f          	j	3584 <.L2>

000035c8 <.L3>:
    35c8:	00052683          	lw	a3,0(a0)
    35cc:	00c00893          	li	a7,12
    35d0:	40d88733          	sub	a4,a7,a3
    35d4:	00e50733          	add	a4,a0,a4
    35d8:	fae368e3          	bltu	t1,a4,3588 <.L5>
    35dc:	00c686b3          	add	a3,a3,a2
    35e0:	02671c63          	bne	a4,t1,3618 <.L6>
    35e4:	02078263          	beqz	a5,3608 <.L7>
    35e8:	00c78713          	add	a4,a5,12
    35ec:	00e59e63          	bne	a1,a4,3608 <.L7>
    35f0:	0007a703          	lw	a4,0(a5)
    35f4:	0087a783          	lw	a5,8(a5)
    35f8:	00e686b3          	add	a3,a3,a4
    35fc:	00078a63          	beqz	a5,3610 <.L8>
    3600:	00a7a223          	sw	a0,4(a5)

00003604 <.L9>:
    3604:	00f52423          	sw	a5,8(a0)

00003608 <.L7>:
    3608:	00d52023          	sw	a3,0(a0)
    360c:	00008067          	ret

00003610 <.L8>:
    3610:	00a82023          	sw	a0,0(a6)
    3614:	ff1ff06f          	j	3604 <.L9>

00003618 <.L6>:
    3618:	00452703          	lw	a4,4(a0)
    361c:	02070a63          	beqz	a4,3650 <.L10>
    3620:	00072583          	lw	a1,0(a4)
    3624:	40b888b3          	sub	a7,a7,a1
    3628:	011708b3          	add	a7,a4,a7
    362c:	03131263          	bne	t1,a7,3650 <.L10>
    3630:	00b686b3          	add	a3,a3,a1
    3634:	00078a63          	beqz	a5,3648 <.L11>
    3638:	00e7a223          	sw	a4,4(a5)

0000363c <.L12>:
    363c:	00f72423          	sw	a5,8(a4)
    3640:	00070513          	mv	a0,a4
    3644:	fc5ff06f          	j	3608 <.L7>

00003648 <.L11>:
    3648:	00e82023          	sw	a4,0(a6)
    364c:	ff1ff06f          	j	363c <.L12>

00003650 <.L10>:
    3650:	00c50533          	add	a0,a0,a2
    3654:	00e52223          	sw	a4,4(a0)
    3658:	00f52423          	sw	a5,8(a0)
    365c:	00078a63          	beqz	a5,3670 <.L13>
    3660:	00a7a223          	sw	a0,4(a5)

00003664 <.L14>:
    3664:	fa0702e3          	beqz	a4,3608 <.L7>
    3668:	00a72423          	sw	a0,8(a4)
    366c:	f9dff06f          	j	3608 <.L7>

00003670 <.L13>:
    3670:	00a82023          	sw	a0,0(a6)
    3674:	ff1ff06f          	j	3664 <.L14>

00003678 <.L17>:
    3678:	00b82023          	sw	a1,0(a6)
    367c:	f29ff06f          	j	35a4 <.L18>

00003680 <__GI_atoi>:
    3680:	00a00613          	li	a2,10
    3684:	00000593          	li	a1,0
    3688:	0040006f          	j	368c <__GI_strtol>

0000368c <__GI_strtol>:
    368c:	00100693          	li	a3,1
    3690:	0040006f          	j	3694 <_stdlib_strto_l>

00003694 <_stdlib_strto_l>:
    3694:	00050893          	mv	a7,a0
    3698:	00088813          	mv	a6,a7
    369c:	0000f517          	auipc	a0,0xf
    36a0:	d1c52503          	lw	a0,-740(a0) # 123b8 <__GI___ctype_b>

000036a4 <.L2>:
    36a4:	00084783          	lbu	a5,0(a6)
    36a8:	00179713          	sll	a4,a5,0x1
    36ac:	00e50733          	add	a4,a0,a4
    36b0:	00075703          	lhu	a4,0(a4)
    36b4:	02077713          	and	a4,a4,32
    36b8:	08071a63          	bnez	a4,374c <.L3>
    36bc:	02b00713          	li	a4,43
    36c0:	08e78a63          	beq	a5,a4,3754 <.L25>
    36c4:	02d00713          	li	a4,45
    36c8:	00000313          	li	t1,0
    36cc:	00e79663          	bne	a5,a4,36d8 <.L5>
    36d0:	00100313          	li	t1,1

000036d4 <.L4>:
    36d4:	00180813          	add	a6,a6,1

000036d8 <.L5>:
    36d8:	fef67793          	and	a5,a2,-17
    36dc:	0a079663          	bnez	a5,3788 <.L6>
    36e0:	00084703          	lbu	a4,0(a6)
    36e4:	03000793          	li	a5,48
    36e8:	06f70a63          	beq	a4,a5,375c <.L7>
    36ec:	00a60613          	add	a2,a2,10

000036f0 <.L8>:
    36f0:	01000793          	li	a5,16
    36f4:	00c7d463          	bge	a5,a2,36fc <.L10>
    36f8:	01000613          	li	a2,16

000036fc <.L10>:
    36fc:	fff00713          	li	a4,-1
    3700:	02c77eb3          	remu	t4,a4,a2
    3704:	00000e13          	li	t3,0
    3708:	00000513          	li	a0,0
    370c:	00900f93          	li	t6,9
    3710:	06000293          	li	t0,96
    3714:	02c75733          	divu	a4,a4,a2
    3718:	0ffefe93          	zext.b	t4,t4

0000371c <.L12>:
    371c:	00084f03          	lbu	t5,0(a6)
    3720:	fd0f0793          	add	a5,t5,-48
    3724:	0ff7f793          	zext.b	a5,a5
    3728:	0afffa63          	bgeu	t6,a5,37dc <.L13>
    372c:	020f6793          	or	a5,t5,32
    3730:	0af2e263          	bltu	t0,a5,37d4 <.L14>

00003734 <.L17>:
    3734:	060e0263          	beqz	t3,3798 <.L11>
    3738:	0000d797          	auipc	a5,0xd
    373c:	b5c7a783          	lw	a5,-1188(a5) # 10294 <_GLOBAL_OFFSET_TABLE_+0xc>
    3740:	02200713          	li	a4,34
    3744:	00e7a023          	sw	a4,0(a5)
    3748:	0500006f          	j	3798 <.L11>

0000374c <.L3>:
    374c:	00180813          	add	a6,a6,1
    3750:	f55ff06f          	j	36a4 <.L2>

00003754 <.L25>:
    3754:	00000313          	li	t1,0
    3758:	f7dff06f          	j	36d4 <.L4>

0000375c <.L7>:
    375c:	00184783          	lbu	a5,1(a6)
    3760:	07800713          	li	a4,120
    3764:	00180893          	add	a7,a6,1
    3768:	0207e793          	or	a5,a5,32
    376c:	00860613          	add	a2,a2,8
    3770:	00e79863          	bne	a5,a4,3780 <.L27>
    3774:	00280813          	add	a6,a6,2
    3778:	00161613          	sll	a2,a2,0x1
    377c:	f75ff06f          	j	36f0 <.L8>

00003780 <.L27>:
    3780:	00088813          	mv	a6,a7
    3784:	f6dff06f          	j	36f0 <.L8>

00003788 <.L6>:
    3788:	ffe60793          	add	a5,a2,-2
    378c:	02200713          	li	a4,34
    3790:	00000513          	li	a0,0
    3794:	f6f774e3          	bgeu	a4,a5,36fc <.L10>

00003798 <.L11>:
    3798:	00058463          	beqz	a1,37a0 <.L22>
    379c:	0115a023          	sw	a7,0(a1)

000037a0 <.L22>:
    37a0:	02068463          	beqz	a3,37c8 <.L23>
    37a4:	800007b7          	lui	a5,0x80000
    37a8:	fff78793          	add	a5,a5,-1 # 7fffffff <_ebss+0x7ffea10f>
    37ac:	00f307b3          	add	a5,t1,a5
    37b0:	00a7fc63          	bgeu	a5,a0,37c8 <.L23>
    37b4:	0000d717          	auipc	a4,0xd
    37b8:	ae072703          	lw	a4,-1312(a4) # 10294 <_GLOBAL_OFFSET_TABLE_+0xc>
    37bc:	02200693          	li	a3,34
    37c0:	00d72023          	sw	a3,0(a4)
    37c4:	00078513          	mv	a0,a5

000037c8 <.L23>:
    37c8:	00030463          	beqz	t1,37d0 <.L1>
    37cc:	40a00533          	neg	a0,a0

000037d0 <.L1>:
    37d0:	00008067          	ret

000037d4 <.L14>:
    37d4:	fa978793          	add	a5,a5,-87
    37d8:	0ff7f793          	zext.b	a5,a5

000037dc <.L13>:
    37dc:	f4c7dce3          	bge	a5,a2,3734 <.L17>
    37e0:	00180813          	add	a6,a6,1
    37e4:	00a76663          	bltu	a4,a0,37f0 <.L18>
    37e8:	00e51e63          	bne	a0,a4,3804 <.L19>
    37ec:	00fefc63          	bgeu	t4,a5,3804 <.L19>

000037f0 <.L18>:
    37f0:	00d37333          	and	t1,t1,a3
    37f4:	00100e13          	li	t3,1
    37f8:	fff00513          	li	a0,-1

000037fc <.L20>:
    37fc:	00080893          	mv	a7,a6
    3800:	f1dff06f          	j	371c <.L12>

00003804 <.L19>:
    3804:	02a60533          	mul	a0,a2,a0
    3808:	00a78533          	add	a0,a5,a0
    380c:	ff1ff06f          	j	37fc <.L20>

00003810 <nprocessors_onln>:
    3810:	fd010113          	add	sp,sp,-48
    3814:	0000e517          	auipc	a0,0xe
    3818:	78050513          	add	a0,a0,1920 # 11f94 <.LC0>
    381c:	02912223          	sw	s1,36(sp)
    3820:	02112623          	sw	ra,44(sp)
    3824:	02812423          	sw	s0,40(sp)
    3828:	03212023          	sw	s2,32(sp)
    382c:	01312e23          	sw	s3,28(sp)
    3830:	01412c23          	sw	s4,24(sp)
    3834:	01512a23          	sw	s5,20(sp)
    3838:	00012623          	sw	zero,12(sp)
    383c:	4d5000ef          	jal	4510 <__GI_config_open>
    3840:	00000493          	li	s1,0
    3844:	0a050c63          	beqz	a0,38fc <.L19>
    3848:	00050413          	mv	s0,a0
    384c:	00c10913          	add	s2,sp,12
    3850:	0000e997          	auipc	s3,0xe
    3854:	75098993          	add	s3,s3,1872 # 11fa0 <.LC1>
    3858:	06300a13          	li	s4,99
    385c:	07000a93          	li	s5,112

00003860 <.L2>:
    3860:	00098693          	mv	a3,s3
    3864:	10200613          	li	a2,258
    3868:	00090593          	mv	a1,s2
    386c:	00040513          	mv	a0,s0
    3870:	535000ef          	jal	45a4 <__GI_config_read>
    3874:	02051e63          	bnez	a0,38b0 <.L5>

00003878 <.L6>:
    3878:	00040513          	mv	a0,s0
    387c:	4e5000ef          	jal	4560 <__GI_config_close>
    3880:	00049463          	bnez	s1,3888 <.L1>
    3884:	00100493          	li	s1,1

00003888 <.L1>:
    3888:	02c12083          	lw	ra,44(sp)
    388c:	02812403          	lw	s0,40(sp)
    3890:	02012903          	lw	s2,32(sp)
    3894:	01c12983          	lw	s3,28(sp)
    3898:	01812a03          	lw	s4,24(sp)
    389c:	01412a83          	lw	s5,20(sp)
    38a0:	00048513          	mv	a0,s1
    38a4:	02412483          	lw	s1,36(sp)
    38a8:	03010113          	add	sp,sp,48
    38ac:	00008067          	ret

000038b0 <.L5>:
    38b0:	00c12783          	lw	a5,12(sp)
    38b4:	0007a783          	lw	a5,0(a5)
    38b8:	0007c703          	lbu	a4,0(a5)
    38bc:	fb4712e3          	bne	a4,s4,3860 <.L2>
    38c0:	0017c703          	lbu	a4,1(a5)
    38c4:	f9571ee3          	bne	a4,s5,3860 <.L2>
    38c8:	0027c683          	lbu	a3,2(a5)
    38cc:	07500713          	li	a4,117
    38d0:	f8e698e3          	bne	a3,a4,3860 <.L2>
    38d4:	0037c703          	lbu	a4,3(a5)
    38d8:	0000f797          	auipc	a5,0xf
    38dc:	ae07a783          	lw	a5,-1312(a5) # 123b8 <__GI___ctype_b>
    38e0:	00171713          	sll	a4,a4,0x1
    38e4:	00e787b3          	add	a5,a5,a4
    38e8:	0007d783          	lhu	a5,0(a5)
    38ec:	0087f793          	and	a5,a5,8
    38f0:	f60788e3          	beqz	a5,3860 <.L2>
    38f4:	00148493          	add	s1,s1,1
    38f8:	f69ff06f          	j	3860 <.L2>

000038fc <.L19>:
    38fc:	0000e517          	auipc	a0,0xe
    3900:	6a850513          	add	a0,a0,1704 # 11fa4 <.LC2>
    3904:	40d000ef          	jal	4510 <__GI_config_open>
    3908:	00050413          	mv	s0,a0
    390c:	f60506e3          	beqz	a0,3878 <.L6>
    3910:	00070937          	lui	s2,0x70
    3914:	00c10993          	add	s3,sp,12
    3918:	0000ea17          	auipc	s4,0xe
    391c:	aa8a0a13          	add	s4,s4,-1368 # 113c0 <.LANCHOR0>
    3920:	20290913          	add	s2,s2,514 # 70202 <_ebss+0x5a312>
    3924:	0000ea97          	auipc	s5,0xe
    3928:	690a8a93          	add	s5,s5,1680 # 11fb4 <.LC3>

0000392c <.L7>:
    392c:	000a0693          	mv	a3,s4
    3930:	00090613          	mv	a2,s2
    3934:	00098593          	mv	a1,s3
    3938:	00040513          	mv	a0,s0
    393c:	469000ef          	jal	45a4 <__GI_config_read>
    3940:	f2050ce3          	beqz	a0,3878 <.L6>
    3944:	00c12783          	lw	a5,12(sp)
    3948:	000a8513          	mv	a0,s5
    394c:	0007a583          	lw	a1,0(a5)
    3950:	1bd020ef          	jal	630c <__GI_strcmp>
    3954:	fc051ce3          	bnez	a0,392c <.L7>
    3958:	00148493          	add	s1,s1,1
    395c:	fd1ff06f          	j	392c <.L7>

00003960 <get_phys_pages>:
    3960:	fb010113          	add	sp,sp,-80
    3964:	04112623          	sw	ra,76(sp)
    3968:	04812423          	sw	s0,72(sp)
    396c:	7f4000ef          	jal	4160 <__GI_getpagesize>
    3970:	00050413          	mv	s0,a0
    3974:	00010513          	mv	a0,sp
    3978:	0c5000ef          	jal	423c <sysinfo>
    397c:	03412783          	lw	a5,52(sp)
    3980:	01012503          	lw	a0,16(sp)
    3984:	00f46e63          	bltu	s0,a5,39a0 <.L22>
    3988:	02f45433          	divu	s0,s0,a5
    398c:	02855533          	divu	a0,a0,s0

00003990 <.L21>:
    3990:	04c12083          	lw	ra,76(sp)
    3994:	04812403          	lw	s0,72(sp)
    3998:	05010113          	add	sp,sp,80
    399c:	00008067          	ret

000039a0 <.L22>:
    39a0:	0287d7b3          	divu	a5,a5,s0
    39a4:	02a78533          	mul	a0,a5,a0
    39a8:	fe9ff06f          	j	3990 <.L21>

000039ac <get_avphys_pages>:
    39ac:	fb010113          	add	sp,sp,-80
    39b0:	04112623          	sw	ra,76(sp)
    39b4:	04812423          	sw	s0,72(sp)
    39b8:	7a8000ef          	jal	4160 <__GI_getpagesize>
    39bc:	00050413          	mv	s0,a0
    39c0:	00010513          	mv	a0,sp
    39c4:	079000ef          	jal	423c <sysinfo>
    39c8:	03412783          	lw	a5,52(sp)
    39cc:	01412503          	lw	a0,20(sp)
    39d0:	00f46e63          	bltu	s0,a5,39ec <.L26>
    39d4:	02f45433          	divu	s0,s0,a5
    39d8:	02855533          	divu	a0,a0,s0

000039dc <.L25>:
    39dc:	04c12083          	lw	ra,76(sp)
    39e0:	04812403          	lw	s0,72(sp)
    39e4:	05010113          	add	sp,sp,80
    39e8:	00008067          	ret

000039ec <.L26>:
    39ec:	0287d7b3          	divu	a5,a5,s0
    39f0:	02a78533          	mul	a0,a5,a0
    39f4:	fe9ff06f          	j	39dc <.L25>

000039f8 <__GI_sysconf>:
    39f8:	fd010113          	add	sp,sp,-48
    39fc:	02112623          	sw	ra,44(sp)
    3a00:	02812423          	sw	s0,40(sp)
    3a04:	02912223          	sw	s1,36(sp)
    3a08:	03212023          	sw	s2,32(sp)
    3a0c:	01312e23          	sw	s3,28(sp)
    3a10:	01412c23          	sw	s4,24(sp)
    3a14:	01512a23          	sw	s5,20(sp)
    3a18:	0f000793          	li	a5,240
    3a1c:	00a7ce63          	blt	a5,a0,3a38 <.L30>
    3a20:	01600793          	li	a5,22
    3a24:	00050413          	mv	s0,a0
    3a28:	02a7c463          	blt	a5,a0,3a50 <.L31>
    3a2c:	00500793          	li	a5,5
    3a30:	0aa7cc63          	blt	a5,a0,3ae8 <.L32>
    3a34:	08055263          	bgez	a0,3ab8 <.L33>

00003a38 <.L30>:
    3a38:	0000d797          	auipc	a5,0xd
    3a3c:	85c7a783          	lw	a5,-1956(a5) # 10294 <_GLOBAL_OFFSET_TABLE_+0xc>
    3a40:	01600713          	li	a4,22
    3a44:	00e7a023          	sw	a4,0(a5)

00003a48 <.L34>:
    3a48:	fff00413          	li	s0,-1
    3a4c:	02c0006f          	j	3a78 <.L47>

00003a50 <.L31>:
    3a50:	fe950413          	add	s0,a0,-23
    3a54:	0d900793          	li	a5,217
    3a58:	fe87e0e3          	bltu	a5,s0,3a38 <.L30>
    3a5c:	52418713          	add	a4,gp,1316 # 11044 <.L35>
    3a60:	00241413          	sll	s0,s0,0x2
    3a64:	00e40433          	add	s0,s0,a4
    3a68:	00042783          	lw	a5,0(s0)
    3a6c:	00e787b3          	add	a5,a5,a4
    3a70:	00078067          	jr	a5

00003a74 <.L65>:
    3a74:	00008437          	lui	s0,0x8

00003a78 <.L47>:
    3a78:	02c12083          	lw	ra,44(sp)
    3a7c:	00040513          	mv	a0,s0
    3a80:	02812403          	lw	s0,40(sp)
    3a84:	02412483          	lw	s1,36(sp)
    3a88:	02012903          	lw	s2,32(sp)
    3a8c:	01c12983          	lw	s3,28(sp)
    3a90:	01812a03          	lw	s4,24(sp)
    3a94:	01412a83          	lw	s5,20(sp)
    3a98:	03010113          	add	sp,sp,48
    3a9c:	00008067          	ret

00003aa0 <.L86>:
    3aa0:	00c75793          	srl	a5,a4,0xc
    3aa4:	3e37f793          	and	a5,a5,995
    3aa8:	fa0790e3          	bnez	a5,3a48 <.L34>
    3aac:	00600793          	li	a5,6
    3ab0:	fcf404e3          	beq	s0,a5,3a78 <.L47>
    3ab4:	f85ff06f          	j	3a38 <.L30>

00003ab8 <.L33>:
    3ab8:	fff50413          	add	s0,a0,-1
    3abc:	00400793          	li	a5,4
    3ac0:	0487e463          	bltu	a5,s0,3b08 <.L66>
    3ac4:	0000e717          	auipc	a4,0xe
    3ac8:	8e870713          	add	a4,a4,-1816 # 113ac <.L68>
    3acc:	00241413          	sll	s0,s0,0x2
    3ad0:	00e40433          	add	s0,s0,a4
    3ad4:	00042783          	lw	a5,0(s0) # 8000 <__kernel_rem_pio2+0x60>
    3ad8:	00e787b3          	add	a5,a5,a4
    3adc:	00078067          	jr	a5

00003ae0 <.L70>:
    3ae0:	06400413          	li	s0,100
    3ae4:	f95ff06f          	j	3a78 <.L47>

00003ae8 <.L32>:
    3ae8:	00100713          	li	a4,1
    3aec:	0041d7b7          	lui	a5,0x41d
    3af0:	00a71733          	sll	a4,a4,a0
    3af4:	f8078793          	add	a5,a5,-128 # 41cf80 <_ebss+0x407090>
    3af8:	00f777b3          	and	a5,a4,a5
    3afc:	fa0782e3          	beqz	a5,3aa0 <.L86>

00003b00 <.L36>:
    3b00:	00100413          	li	s0,1
    3b04:	f75ff06f          	j	3a78 <.L47>

00003b08 <.L66>:
    3b08:	00810593          	add	a1,sp,8
    3b0c:	00300513          	li	a0,3
    3b10:	65c000ef          	jal	416c <__GI_getrlimit>
    3b14:	00020437          	lui	s0,0x20
    3b18:	f60510e3          	bnez	a0,3a78 <.L47>
    3b1c:	00812783          	lw	a5,8(sp)
    3b20:	00080737          	lui	a4,0x80
    3b24:	f4e7eae3          	bltu	a5,a4,3a78 <.L47>
    3b28:	0027d413          	srl	s0,a5,0x2
    3b2c:	f4dff06f          	j	3a78 <.L47>

00003b30 <.L69>:
    3b30:	02812403          	lw	s0,40(sp)
    3b34:	02c12083          	lw	ra,44(sp)
    3b38:	02412483          	lw	s1,36(sp)
    3b3c:	02012903          	lw	s2,32(sp)
    3b40:	01c12983          	lw	s3,28(sp)
    3b44:	01812a03          	lw	s4,24(sp)
    3b48:	01412a83          	lw	s5,20(sp)
    3b4c:	03010113          	add	sp,sp,48
    3b50:	5e00006f          	j	4130 <__GI_getdtablesize>

00003b54 <.L48>:
    3b54:	01000413          	li	s0,16
    3b58:	f21ff06f          	j	3a78 <.L47>

00003b5c <.L64>:
    3b5c:	02812403          	lw	s0,40(sp)
    3b60:	02c12083          	lw	ra,44(sp)
    3b64:	02412483          	lw	s1,36(sp)
    3b68:	02012903          	lw	s2,32(sp)
    3b6c:	01c12983          	lw	s3,28(sp)
    3b70:	01812a03          	lw	s4,24(sp)
    3b74:	01412a83          	lw	s5,20(sp)
    3b78:	03010113          	add	sp,sp,48
    3b7c:	5e40006f          	j	4160 <__GI_getpagesize>

00003b80 <.L49>:
    3b80:	02000413          	li	s0,32
    3b84:	ef5ff06f          	j	3a78 <.L47>

00003b88 <.L63>:
    3b88:	06300413          	li	s0,99
    3b8c:	eedff06f          	j	3a78 <.L47>

00003b90 <.L39>:
    3b90:	00001437          	lui	s0,0x1
    3b94:	80040413          	add	s0,s0,-2048 # 800 <.L25>
    3b98:	ee1ff06f          	j	3a78 <.L47>

00003b9c <.L62>:
    3b9c:	3e800413          	li	s0,1000
    3ba0:	ed9ff06f          	j	3a78 <.L47>

00003ba4 <.L42>:
    3ba4:	0ff00413          	li	s0,255
    3ba8:	ed1ff06f          	j	3a78 <.L47>

00003bac <.L44>:
    3bac:	00008437          	lui	s0,0x8

00003bb0 <.L90>:
    3bb0:	fff40413          	add	s0,s0,-1 # 7fff <__kernel_rem_pio2+0x5f>
    3bb4:	ec5ff06f          	j	3a78 <.L47>

00003bb8 <.L61>:
    3bb8:	10000413          	li	s0,256
    3bbc:	ebdff06f          	j	3a78 <.L47>

00003bc0 <.L60>:
    3bc0:	0000e517          	auipc	a0,0xe
    3bc4:	40050513          	add	a0,a0,1024 # 11fc0 <.LC5>
    3bc8:	02d000ef          	jal	43f4 <__GI_opendir>
    3bcc:	00050493          	mv	s1,a0
    3bd0:	00000413          	li	s0,0
    3bd4:	06050c63          	beqz	a0,3c4c <.L87>
    3bd8:	00010937          	lui	s2,0x10
    3bdc:	000079b7          	lui	s3,0x7
    3be0:	ffff0a37          	lui	s4,0xffff0
    3be4:	63040ab7          	lui	s5,0x63040
    3be8:	fff90913          	add	s2,s2,-1 # ffff <.LVL314+0x7>
    3bec:	57098993          	add	s3,s3,1392 # 7570 <__stdio_rfill+0x10>

00003bf0 <.L72>:
    3bf0:	00048513          	mv	a0,s1
    3bf4:	085000ef          	jal	4478 <__GI_readdir64>
    3bf8:	00051a63          	bnez	a0,3c0c <.L75>
    3bfc:	00048513          	mv	a0,s1
    3c00:	664000ef          	jal	4264 <__GI_closedir>

00003c04 <.L76>:
    3c04:	e6041ae3          	bnez	s0,3a78 <.L47>
    3c08:	ef9ff06f          	j	3b00 <.L36>

00003c0c <.L75>:
    3c0c:	01052783          	lw	a5,16(a0)
    3c10:	00fa77b3          	and	a5,s4,a5
    3c14:	fd579ee3          	bne	a5,s5,3bf0 <.L72>
    3c18:	01452783          	lw	a5,20(a0)
    3c1c:	0127f7b3          	and	a5,a5,s2
    3c20:	fd3798e3          	bne	a5,s3,3bf0 <.L72>
    3c24:	01654703          	lbu	a4,22(a0)
    3c28:	0000e797          	auipc	a5,0xe
    3c2c:	7907a783          	lw	a5,1936(a5) # 123b8 <__GI___ctype_b>
    3c30:	00171713          	sll	a4,a4,0x1
    3c34:	00e787b3          	add	a5,a5,a4
    3c38:	0007d783          	lhu	a5,0(a5)
    3c3c:	0087f793          	and	a5,a5,8
    3c40:	fa0788e3          	beqz	a5,3bf0 <.L72>
    3c44:	00140413          	add	s0,s0,1
    3c48:	fa9ff06f          	j	3bf0 <.L72>

00003c4c <.L87>:
    3c4c:	bc5ff0ef          	jal	3810 <nprocessors_onln>
    3c50:	00050413          	mv	s0,a0
    3c54:	fb1ff06f          	j	3c04 <.L76>

00003c58 <.L59>:
    3c58:	02812403          	lw	s0,40(sp)
    3c5c:	02c12083          	lw	ra,44(sp)
    3c60:	02412483          	lw	s1,36(sp)
    3c64:	02012903          	lw	s2,32(sp)
    3c68:	01c12983          	lw	s3,28(sp)
    3c6c:	01812a03          	lw	s4,24(sp)
    3c70:	01412a83          	lw	s5,20(sp)
    3c74:	03010113          	add	sp,sp,48
    3c78:	b99ff06f          	j	3810 <nprocessors_onln>

00003c7c <.L58>:
    3c7c:	02812403          	lw	s0,40(sp)
    3c80:	02c12083          	lw	ra,44(sp)
    3c84:	02412483          	lw	s1,36(sp)
    3c88:	02012903          	lw	s2,32(sp)
    3c8c:	01c12983          	lw	s3,28(sp)
    3c90:	01812a03          	lw	s4,24(sp)
    3c94:	01412a83          	lw	s5,20(sp)
    3c98:	03010113          	add	sp,sp,48
    3c9c:	cc5ff06f          	j	3960 <get_phys_pages>

00003ca0 <.L57>:
    3ca0:	02812403          	lw	s0,40(sp)
    3ca4:	02c12083          	lw	ra,44(sp)
    3ca8:	02412483          	lw	s1,36(sp)
    3cac:	02012903          	lw	s2,32(sp)
    3cb0:	01c12983          	lw	s3,28(sp)
    3cb4:	01812a03          	lw	s4,24(sp)
    3cb8:	01412a83          	lw	s5,20(sp)
    3cbc:	03010113          	add	sp,sp,48
    3cc0:	cedff06f          	j	39ac <get_avphys_pages>

00003cc4 <.L38>:
    3cc4:	80000437          	lui	s0,0x80000
    3cc8:	ee9ff06f          	j	3bb0 <.L90>

00003ccc <.L56>:
    3ccc:	00001437          	lui	s0,0x1
    3cd0:	da9ff06f          	j	3a78 <.L47>

00003cd4 <.L55>:
    3cd4:	2bc00413          	li	s0,700
    3cd8:	da1ff06f          	j	3a78 <.L47>

00003cdc <.L54>:
    3cdc:	00400413          	li	s0,4
    3ce0:	d99ff06f          	j	3a78 <.L47>

00003ce4 <.L52>:
    3ce4:	00800413          	li	s0,8
    3ce8:	d91ff06f          	j	3a78 <.L47>

00003cec <.L51>:
    3cec:	00000413          	li	s0,0
    3cf0:	d89ff06f          	j	3a78 <.L47>

00003cf4 <.L50>:
    3cf4:	80000437          	lui	s0,0x80000
    3cf8:	d81ff06f          	j	3a78 <.L47>

00003cfc <.L46>:
    3cfc:	07f00413          	li	s0,127
    3d00:	d79ff06f          	j	3a78 <.L47>

00003d04 <.L45>:
    3d04:	f8000413          	li	s0,-128
    3d08:	d71ff06f          	j	3a78 <.L47>

00003d0c <.L43>:
    3d0c:	ffff8437          	lui	s0,0xffff8
    3d10:	d69ff06f          	j	3a78 <.L47>

00003d14 <.L41>:
    3d14:	00010437          	lui	s0,0x10
    3d18:	e99ff06f          	j	3bb0 <.L90>

00003d1c <.L40>:
    3d1c:	00900413          	li	s0,9
    3d20:	d59ff06f          	j	3a78 <.L47>

00003d24 <.L37>:
    3d24:	00000593          	li	a1,0
    3d28:	00100513          	li	a0,1
    3d2c:	3dc000ef          	jal	4108 <__GI_clock_getres>
    3d30:	d0054ce3          	bltz	a0,3a48 <.L34>

00003d34 <.L53>:
    3d34:	00031437          	lui	s0,0x31
    3d38:	06940413          	add	s0,s0,105 # 31069 <_ebss+0x1b179>
    3d3c:	d3dff06f          	j	3a78 <.L47>

00003d40 <.L77>:
    3d40:	01400413          	li	s0,20
    3d44:	d35ff06f          	j	3a78 <.L47>

00003d48 <.L78>:
    3d48:	00010437          	lui	s0,0x10
    3d4c:	d2dff06f          	j	3a78 <.L47>

00003d50 <__uClibc_init>:
    3d50:	00012797          	auipc	a5,0x12
    3d54:	00878793          	add	a5,a5,8 # 15d58 <__pagesize>
    3d58:	0007a703          	lw	a4,0(a5)
    3d5c:	02071063          	bnez	a4,3d7c <.L1>
    3d60:	00002737          	lui	a4,0x2
    3d64:	00e7a023          	sw	a4,0(a5)
    3d68:	0000c717          	auipc	a4,0xc
    3d6c:	56872703          	lw	a4,1384(a4) # 102d0 <.LLST90+0x2b>
    3d70:	00070793          	mv	a5,a4
    3d74:	00078463          	beqz	a5,3d7c <.L1>
    3d78:	00070067          	jr	a4

00003d7c <.L1>:
    3d7c:	00008067          	ret

00003d80 <__uClibc_fini>:
    3d80:	ff010113          	add	sp,sp,-16
    3d84:	00812423          	sw	s0,8(sp)
    3d88:	00912223          	sw	s1,4(sp)
    3d8c:	0000e417          	auipc	s0,0xe
    3d90:	64040413          	add	s0,s0,1600 # 123cc <__TMC_END__>
    3d94:	0000e497          	auipc	s1,0xe
    3d98:	63448493          	add	s1,s1,1588 # 123c8 <__do_global_dtors_aux_fini_array_entry>
    3d9c:	40940433          	sub	s0,s0,s1
    3da0:	40245413          	sra	s0,s0,0x2
    3da4:	01212023          	sw	s2,0(sp)
    3da8:	00112623          	sw	ra,12(sp)
    3dac:	fff40413          	add	s0,s0,-1
    3db0:	fff00913          	li	s2,-1

00003db4 <.L9>:
    3db4:	03241c63          	bne	s0,s2,3dec <.L10>
    3db8:	00012417          	auipc	s0,0x12
    3dbc:	fa040413          	add	s0,s0,-96 # 15d58 <__pagesize>
    3dc0:	00442783          	lw	a5,4(s0)
    3dc4:	00078463          	beqz	a5,3dcc <.L11>
    3dc8:	000780e7          	jalr	a5

00003dcc <.L11>:
    3dcc:	00842783          	lw	a5,8(s0)
    3dd0:	02078a63          	beqz	a5,3e04 <.L8>
    3dd4:	00812403          	lw	s0,8(sp)
    3dd8:	00c12083          	lw	ra,12(sp)
    3ddc:	00412483          	lw	s1,4(sp)
    3de0:	00012903          	lw	s2,0(sp)
    3de4:	01010113          	add	sp,sp,16
    3de8:	00078067          	jr	a5

00003dec <.L10>:
    3dec:	00241793          	sll	a5,s0,0x2
    3df0:	00f487b3          	add	a5,s1,a5
    3df4:	0007a783          	lw	a5,0(a5)
    3df8:	fff40413          	add	s0,s0,-1
    3dfc:	000780e7          	jalr	a5
    3e00:	fb5ff06f          	j	3db4 <.L9>

00003e04 <.L8>:
    3e04:	00c12083          	lw	ra,12(sp)
    3e08:	00812403          	lw	s0,8(sp)
    3e0c:	00412483          	lw	s1,4(sp)
    3e10:	00012903          	lw	s2,0(sp)
    3e14:	01010113          	add	sp,sp,16
    3e18:	00008067          	ret

00003e1c <__uClibc_main>:
    3e1c:	f5010113          	add	sp,sp,-176
    3e20:	0a812423          	sw	s0,168(sp)
    3e24:	0b212023          	sw	s2,160(sp)
    3e28:	09312e23          	sw	s3,156(sp)
    3e2c:	09412c23          	sw	s4,152(sp)
    3e30:	09512a23          	sw	s5,148(sp)
    3e34:	09612823          	sw	s6,144(sp)
    3e38:	09712623          	sw	s7,140(sp)
    3e3c:	0a112623          	sw	ra,172(sp)
    3e40:	0a912223          	sw	s1,164(sp)
    3e44:	09812423          	sw	s8,136(sp)
    3e48:	09912223          	sw	s9,132(sp)
    3e4c:	09a12023          	sw	s10,128(sp)
    3e50:	00070a93          	mv	s5,a4
    3e54:	00012b17          	auipc	s6,0x12
    3e58:	f04b0b13          	add	s6,s6,-252 # 15d58 <__pagesize>
    3e5c:	0000c717          	auipc	a4,0xc
    3e60:	43472703          	lw	a4,1076(a4) # 10290 <_GLOBAL_OFFSET_TABLE_+0x8>
    3e64:	01072023          	sw	a6,0(a4)
    3e68:	00fb2423          	sw	a5,8(s6)
    3e6c:	00158793          	add	a5,a1,1
    3e70:	00068993          	mv	s3,a3
    3e74:	00279793          	sll	a5,a5,0x2
    3e78:	00062683          	lw	a3,0(a2)
    3e7c:	00f60733          	add	a4,a2,a5
    3e80:	0000cb97          	auipc	s7,0xc
    3e84:	418bab83          	lw	s7,1048(s7) # 10298 <_GLOBAL_OFFSET_TABLE_+0x10>
    3e88:	00eba023          	sw	a4,0(s7)
    3e8c:	00050a13          	mv	s4,a0
    3e90:	00058913          	mv	s2,a1
    3e94:	00060413          	mv	s0,a2
    3e98:	00d71863          	bne	a4,a3,3ea8 <.L18>
    3e9c:	ffc78793          	add	a5,a5,-4
    3ea0:	00f607b3          	add	a5,a2,a5
    3ea4:	00fba023          	sw	a5,0(s7)

00003ea8 <.L18>:
    3ea8:	00810c93          	add	s9,sp,8
    3eac:	07800613          	li	a2,120
    3eb0:	00000593          	li	a1,0
    3eb4:	000c8513          	mv	a0,s9
    3eb8:	ee1fe0ef          	jal	2d98 <__GI_memset>
    3ebc:	000bac03          	lw	s8,0(s7)

00003ec0 <.L19>:
    3ec0:	000c2783          	lw	a5,0(s8)
    3ec4:	004c0c13          	add	s8,s8,4
    3ec8:	fe079ce3          	bnez	a5,3ec0 <.L19>
    3ecc:	00e00d13          	li	s10,14

00003ed0 <.L20>:
    3ed0:	000c2483          	lw	s1,0(s8)
    3ed4:	0c049a63          	bnez	s1,3fa8 <.L22>
    3ed8:	000c8513          	mv	a0,s9
    3edc:	120000ef          	jal	3ffc <_dl_aux_init>
    3ee0:	e71ff0ef          	jal	3d50 <__uClibc_init>
    3ee4:	00042783          	lw	a5,0(s0)
    3ee8:	0000e717          	auipc	a4,0xe
    3eec:	4cf72223          	sw	a5,1220(a4) # 123ac <__uclibc_progname>
    3ef0:	02078a63          	beqz	a5,3f24 <.L23>
    3ef4:	0000c717          	auipc	a4,0xc
    3ef8:	3ec72703          	lw	a4,1004(a4) # 102e0 <.LLST90+0x3b>
    3efc:	00f72023          	sw	a5,0(a4)
    3f00:	00042503          	lw	a0,0(s0)
    3f04:	02f00593          	li	a1,47
    3f08:	488020ef          	jal	6390 <__GI_strrchr>
    3f0c:	0000c797          	auipc	a5,0xc
    3f10:	3a47a783          	lw	a5,932(a5) # 102b0 <.LLST90+0xb>
    3f14:	00a7a023          	sw	a0,0(a5)
    3f18:	0a050863          	beqz	a0,3fc8 <.L24>
    3f1c:	00150513          	add	a0,a0,1
    3f20:	00a7a023          	sw	a0,0(a5)

00003f24 <.L23>:
    3f24:	015b2223          	sw	s5,4(s6)
    3f28:	0000eb17          	auipc	s6,0xe
    3f2c:	498b0b13          	add	s6,s6,1176 # 123c0 <__preinit_array_start>
    3f30:	0000ea97          	auipc	s5,0xe
    3f34:	494a8a93          	add	s5,s5,1172 # 123c4 <__frame_dummy_init_array_entry>
    3f38:	416a8ab3          	sub	s5,s5,s6
    3f3c:	402ada93          	sra	s5,s5,0x2
    3f40:	00000c13          	li	s8,0

00003f44 <.L25>:
    3f44:	095c1863          	bne	s8,s5,3fd4 <.L26>
    3f48:	00098463          	beqz	s3,3f50 <.L27>
    3f4c:	000980e7          	jalr	s3

00003f50 <.L27>:
    3f50:	0000ea97          	auipc	s5,0xe
    3f54:	474a8a93          	add	s5,s5,1140 # 123c4 <__frame_dummy_init_array_entry>
    3f58:	0000e997          	auipc	s3,0xe
    3f5c:	47098993          	add	s3,s3,1136 # 123c8 <__do_global_dtors_aux_fini_array_entry>
    3f60:	415989b3          	sub	s3,s3,s5
    3f64:	4029d993          	sra	s3,s3,0x2

00003f68 <.L28>:
    3f68:	08999063          	bne	s3,s1,3fe8 <.L29>
    3f6c:	0000c797          	auipc	a5,0xc
    3f70:	3607a783          	lw	a5,864(a5) # 102cc <.LLST90+0x27>
    3f74:	00078663          	beqz	a5,3f80 <.L30>
    3f78:	580000ef          	jal	44f8 <__errno_location>
    3f7c:	00052023          	sw	zero,0(a0)

00003f80 <.L30>:
    3f80:	0000c797          	auipc	a5,0xc
    3f84:	33c7a783          	lw	a5,828(a5) # 102bc <.LLST90+0x17>
    3f88:	00078663          	beqz	a5,3f94 <.L31>
    3f8c:	578000ef          	jal	4504 <__h_errno_location>
    3f90:	00052023          	sw	zero,0(a0)

00003f94 <.L31>:
    3f94:	000ba603          	lw	a2,0(s7)
    3f98:	00040593          	mv	a1,s0
    3f9c:	00090513          	mv	a0,s2
    3fa0:	000a00e7          	jalr	s4 # ffff0000 <_ebss+0xfffda110>
    3fa4:	654020ef          	jal	65f8 <__GI_exit>

00003fa8 <.L22>:
    3fa8:	009d6c63          	bltu	s10,s1,3fc0 <.L21>
    3fac:	00349513          	sll	a0,s1,0x3
    3fb0:	00800613          	li	a2,8
    3fb4:	000c0593          	mv	a1,s8
    3fb8:	00ac8533          	add	a0,s9,a0
    3fbc:	b35fe0ef          	jal	2af0 <__GI_memcpy>

00003fc0 <.L21>:
    3fc0:	008c0c13          	add	s8,s8,8
    3fc4:	f0dff06f          	j	3ed0 <.L20>

00003fc8 <.L24>:
    3fc8:	00042703          	lw	a4,0(s0)
    3fcc:	00e7a023          	sw	a4,0(a5)
    3fd0:	f55ff06f          	j	3f24 <.L23>

00003fd4 <.L26>:
    3fd4:	000b2783          	lw	a5,0(s6)
    3fd8:	001c0c13          	add	s8,s8,1
    3fdc:	004b0b13          	add	s6,s6,4
    3fe0:	000780e7          	jalr	a5
    3fe4:	f61ff06f          	j	3f44 <.L25>

00003fe8 <.L29>:
    3fe8:	000aa783          	lw	a5,0(s5)
    3fec:	00148493          	add	s1,s1,1
    3ff0:	004a8a93          	add	s5,s5,4
    3ff4:	000780e7          	jalr	a5
    3ff8:	f71ff06f          	j	3f68 <.L28>

00003ffc <_dl_aux_init>:
    3ffc:	01c52703          	lw	a4,28(a0)
    4000:	0000c797          	auipc	a5,0xc
    4004:	2b47a783          	lw	a5,692(a5) # 102b4 <.LLST90+0xf>
    4008:	00e7a023          	sw	a4,0(a5)
    400c:	02c52703          	lw	a4,44(a0)
    4010:	0000c797          	auipc	a5,0xc
    4014:	2b87a783          	lw	a5,696(a5) # 102c8 <.LLST90+0x23>
    4018:	00e7a023          	sw	a4,0(a5)
    401c:	03452783          	lw	a5,52(a0)
    4020:	00079463          	bnez	a5,4028 <.L2>
    4024:	000027b7          	lui	a5,0x2

00004028 <.L2>:
    4028:	0000c717          	auipc	a4,0xc
    402c:	2b472703          	lw	a4,692(a4) # 102dc <.LLST90+0x37>
    4030:	00f72023          	sw	a5,0(a4)
    4034:	00008067          	ret

00004038 <atan2f>:
    4038:	ff010113          	add	sp,sp,-16
    403c:	01212023          	sw	s2,0(sp)
    4040:	00050913          	mv	s2,a0
    4044:	00058513          	mv	a0,a1
    4048:	00112623          	sw	ra,12(sp)
    404c:	00812423          	sw	s0,8(sp)
    4050:	00912223          	sw	s1,4(sp)
    4054:	7380a0ef          	jal	e78c <__extendsfdf2>
    4058:	00050493          	mv	s1,a0
    405c:	00090513          	mv	a0,s2
    4060:	00058413          	mv	s0,a1
    4064:	7280a0ef          	jal	e78c <__extendsfdf2>
    4068:	00048613          	mv	a2,s1
    406c:	00040693          	mv	a3,s0
    4070:	5cc020ef          	jal	663c <__ieee754_atan2>
    4074:	2010a0ef          	jal	ea74 <__truncdfsf2>
    4078:	00c12083          	lw	ra,12(sp)
    407c:	00812403          	lw	s0,8(sp)
    4080:	00412483          	lw	s1,4(sp)
    4084:	00012903          	lw	s2,0(sp)
    4088:	01010113          	add	sp,sp,16
    408c:	00008067          	ret

00004090 <fmodf>:
    4090:	ff010113          	add	sp,sp,-16
    4094:	01212023          	sw	s2,0(sp)
    4098:	00050913          	mv	s2,a0
    409c:	00058513          	mv	a0,a1
    40a0:	00112623          	sw	ra,12(sp)
    40a4:	00812423          	sw	s0,8(sp)
    40a8:	00912223          	sw	s1,4(sp)
    40ac:	6e00a0ef          	jal	e78c <__extendsfdf2>
    40b0:	00050493          	mv	s1,a0
    40b4:	00090513          	mv	a0,s2
    40b8:	00058413          	mv	s0,a1
    40bc:	6d00a0ef          	jal	e78c <__extendsfdf2>
    40c0:	00048613          	mv	a2,s1
    40c4:	00040693          	mv	a3,s0
    40c8:	7d4020ef          	jal	689c <__ieee754_fmod>
    40cc:	1a90a0ef          	jal	ea74 <__truncdfsf2>
    40d0:	00c12083          	lw	ra,12(sp)
    40d4:	00812403          	lw	s0,8(sp)
    40d8:	00412483          	lw	s1,4(sp)
    40dc:	00012903          	lw	s2,0(sp)
    40e0:	01010113          	add	sp,sp,16
    40e4:	00008067          	ret

000040e8 <__GI_sinf>:
    40e8:	ff010113          	add	sp,sp,-16
    40ec:	00112623          	sw	ra,12(sp)
    40f0:	69c0a0ef          	jal	e78c <__extendsfdf2>
    40f4:	735020ef          	jal	7028 <__GI_sin>
    40f8:	17d0a0ef          	jal	ea74 <__truncdfsf2>
    40fc:	00c12083          	lw	ra,12(sp)
    4100:	01010113          	add	sp,sp,16
    4104:	00008067          	ret

00004108 <__GI_clock_getres>:
    4108:	07200893          	li	a7,114
    410c:	00000073          	ecall
    4110:	fffff7b7          	lui	a5,0xfffff
    4114:	00a7fc63          	bgeu	a5,a0,412c <.L1>
    4118:	40a00533          	neg	a0,a0
    411c:	0000c797          	auipc	a5,0xc
    4120:	1787a783          	lw	a5,376(a5) # 10294 <_GLOBAL_OFFSET_TABLE_+0xc>
    4124:	00a7a023          	sw	a0,0(a5)
    4128:	fff00513          	li	a0,-1

0000412c <.L1>:
    412c:	00008067          	ret

00004130 <__GI_getdtablesize>:
    4130:	fe010113          	add	sp,sp,-32
    4134:	00810593          	add	a1,sp,8
    4138:	00700513          	li	a0,7
    413c:	00112e23          	sw	ra,28(sp)
    4140:	02c000ef          	jal	416c <__GI_getrlimit>
    4144:	10000793          	li	a5,256
    4148:	00054463          	bltz	a0,4150 <.L1>
    414c:	00812783          	lw	a5,8(sp)

00004150 <.L1>:
    4150:	01c12083          	lw	ra,28(sp)
    4154:	00078513          	mv	a0,a5
    4158:	02010113          	add	sp,sp,32
    415c:	00008067          	ret

00004160 <__GI_getpagesize>:
    4160:	00012517          	auipc	a0,0x12
    4164:	bf852503          	lw	a0,-1032(a0) # 15d58 <__pagesize>
    4168:	00008067          	ret

0000416c <__GI_getrlimit>:
    416c:	00058793          	mv	a5,a1
    4170:	0a300893          	li	a7,163
    4174:	00000073          	ecall
    4178:	fffff737          	lui	a4,0xfffff
    417c:	02a76c63          	bltu	a4,a0,41b4 <.L2>
    4180:	0005a683          	lw	a3,0(a1)
    4184:	80000737          	lui	a4,0x80000
    4188:	fff70713          	add	a4,a4,-1 # 7fffffff <_ebss+0x7ffea10f>
    418c:	00e69663          	bne	a3,a4,4198 <.L4>
    4190:	fff00713          	li	a4,-1
    4194:	00e5a023          	sw	a4,0(a1)

00004198 <.L4>:
    4198:	0047a683          	lw	a3,4(a5)
    419c:	80000737          	lui	a4,0x80000
    41a0:	fff70713          	add	a4,a4,-1 # 7fffffff <_ebss+0x7ffea10f>
    41a4:	00e69663          	bne	a3,a4,41b0 <.L1>
    41a8:	fff00713          	li	a4,-1
    41ac:	00e7a223          	sw	a4,4(a5)

000041b0 <.L1>:
    41b0:	00008067          	ret

000041b4 <.L2>:
    41b4:	40a00533          	neg	a0,a0
    41b8:	0000c797          	auipc	a5,0xc
    41bc:	0dc7a783          	lw	a5,220(a5) # 10294 <_GLOBAL_OFFSET_TABLE_+0xc>
    41c0:	00a7a023          	sw	a0,0(a5)
    41c4:	fff00513          	li	a0,-1
    41c8:	00008067          	ret

000041cc <__GI_mmap>:
    41cc:	01379813          	sll	a6,a5,0x13
    41d0:	00080e63          	beqz	a6,41ec <.L2>
    41d4:	0000c797          	auipc	a5,0xc
    41d8:	0c07a783          	lw	a5,192(a5) # 10294 <_GLOBAL_OFFSET_TABLE_+0xc>
    41dc:	01600713          	li	a4,22
    41e0:	00e7a023          	sw	a4,0(a5)

000041e4 <.L5>:
    41e4:	fff00513          	li	a0,-1

000041e8 <.L1>:
    41e8:	00008067          	ret

000041ec <.L2>:
    41ec:	00d7d793          	srl	a5,a5,0xd
    41f0:	0de00893          	li	a7,222
    41f4:	00000073          	ecall
    41f8:	fffff7b7          	lui	a5,0xfffff
    41fc:	fea7f6e3          	bgeu	a5,a0,41e8 <.L1>
    4200:	40a00533          	neg	a0,a0
    4204:	0000c797          	auipc	a5,0xc
    4208:	0907a783          	lw	a5,144(a5) # 10294 <_GLOBAL_OFFSET_TABLE_+0xc>
    420c:	00a7a023          	sw	a0,0(a5)
    4210:	fd5ff06f          	j	41e4 <.L5>

00004214 <__GI_munmap>:
    4214:	0d700893          	li	a7,215
    4218:	00000073          	ecall
    421c:	fffff7b7          	lui	a5,0xfffff
    4220:	00a7fc63          	bgeu	a5,a0,4238 <.L1>
    4224:	40a00533          	neg	a0,a0
    4228:	0000c797          	auipc	a5,0xc
    422c:	06c7a783          	lw	a5,108(a5) # 10294 <_GLOBAL_OFFSET_TABLE_+0xc>
    4230:	00a7a023          	sw	a0,0(a5)
    4234:	fff00513          	li	a0,-1

00004238 <.L1>:
    4238:	00008067          	ret

0000423c <sysinfo>:
    423c:	0b300893          	li	a7,179
    4240:	00000073          	ecall
    4244:	fffff7b7          	lui	a5,0xfffff
    4248:	00a7fc63          	bgeu	a5,a0,4260 <.L1>
    424c:	40a00533          	neg	a0,a0
    4250:	0000c797          	auipc	a5,0xc
    4254:	0447a783          	lw	a5,68(a5) # 10294 <_GLOBAL_OFFSET_TABLE_+0xc>
    4258:	00a7a023          	sw	a0,0(a5)
    425c:	fff00513          	li	a0,-1

00004260 <.L1>:
    4260:	00008067          	ret

00004264 <__GI_closedir>:
    4264:	ff010113          	add	sp,sp,-16
    4268:	00912223          	sw	s1,4(sp)
    426c:	00052483          	lw	s1,0(a0)
    4270:	00112623          	sw	ra,12(sp)
    4274:	00812423          	sw	s0,8(sp)
    4278:	fff00793          	li	a5,-1
    427c:	02f48a63          	beq	s1,a5,42b0 <.L5>
    4280:	00050413          	mv	s0,a0
    4284:	00f52023          	sw	a5,0(a0)
    4288:	00c52503          	lw	a0,12(a0)
    428c:	a54ff0ef          	jal	34e0 <free>
    4290:	00040513          	mv	a0,s0
    4294:	a4cff0ef          	jal	34e0 <free>
    4298:	00812403          	lw	s0,8(sp)
    429c:	00c12083          	lw	ra,12(sp)
    42a0:	00048513          	mv	a0,s1
    42a4:	00412483          	lw	s1,4(sp)
    42a8:	01010113          	add	sp,sp,16
    42ac:	bb4fd06f          	j	1660 <__GI_close>

000042b0 <.L5>:
    42b0:	00c12083          	lw	ra,12(sp)
    42b4:	00812403          	lw	s0,8(sp)
    42b8:	0000c797          	auipc	a5,0xc
    42bc:	fdc7a783          	lw	a5,-36(a5) # 10294 <_GLOBAL_OFFSET_TABLE_+0xc>
    42c0:	00900713          	li	a4,9
    42c4:	00e7a023          	sw	a4,0(a5)
    42c8:	00412483          	lw	s1,4(sp)
    42cc:	fff00513          	li	a0,-1
    42d0:	01010113          	add	sp,sp,16
    42d4:	00008067          	ret

000042d8 <fd_to_DIR>:
    42d8:	ff010113          	add	sp,sp,-16
    42dc:	01212023          	sw	s2,0(sp)
    42e0:	00050913          	mv	s2,a0
    42e4:	01c00513          	li	a0,28
    42e8:	00912223          	sw	s1,4(sp)
    42ec:	00112623          	sw	ra,12(sp)
    42f0:	00812423          	sw	s0,8(sp)
    42f4:	00058493          	mv	s1,a1
    42f8:	fd1fe0ef          	jal	32c8 <malloc>
    42fc:	04050263          	beqz	a0,4340 <.L2>
    4300:	01252023          	sw	s2,0(a0)
    4304:	00052823          	sw	zero,16(a0)
    4308:	00052423          	sw	zero,8(a0)
    430c:	00052223          	sw	zero,4(a0)
    4310:	20000793          	li	a5,512
    4314:	00050413          	mv	s0,a0
    4318:	00048593          	mv	a1,s1
    431c:	00f4f463          	bgeu	s1,a5,4324 <.L3>
    4320:	20000593          	li	a1,512

00004324 <.L3>:
    4324:	00b42a23          	sw	a1,20(s0)
    4328:	00100513          	li	a0,1
    432c:	10c020ef          	jal	6438 <calloc>
    4330:	00a42623          	sw	a0,12(s0)
    4334:	00051863          	bnez	a0,4344 <.L1>
    4338:	00040513          	mv	a0,s0
    433c:	9a4ff0ef          	jal	34e0 <free>

00004340 <.L2>:
    4340:	00000413          	li	s0,0

00004344 <.L1>:
    4344:	00c12083          	lw	ra,12(sp)
    4348:	00040513          	mv	a0,s0
    434c:	00812403          	lw	s0,8(sp)
    4350:	00412483          	lw	s1,4(sp)
    4354:	00012903          	lw	s2,0(sp)
    4358:	01010113          	add	sp,sp,16
    435c:	00008067          	ret

00004360 <fdopendir>:
    4360:	f8010113          	add	sp,sp,-128
    4364:	00810593          	add	a1,sp,8
    4368:	06812c23          	sw	s0,120(sp)
    436c:	06112e23          	sw	ra,124(sp)
    4370:	00050413          	mv	s0,a0
    4374:	63d020ef          	jal	71b0 <__GI_fstat64>
    4378:	02051463          	bnez	a0,43a0 <.L11>
    437c:	01812703          	lw	a4,24(sp)
    4380:	0000f7b7          	lui	a5,0xf
    4384:	00e7f7b3          	and	a5,a5,a4
    4388:	00004737          	lui	a4,0x4
    438c:	02e78463          	beq	a5,a4,43b4 <.L12>
    4390:	0000c797          	auipc	a5,0xc
    4394:	f047a783          	lw	a5,-252(a5) # 10294 <_GLOBAL_OFFSET_TABLE_+0xc>
    4398:	01400713          	li	a4,20

0000439c <.L17>:
    439c:	00e7a023          	sw	a4,0(a5)

000043a0 <.L11>:
    43a0:	00000513          	li	a0,0

000043a4 <.L9>:
    43a4:	07c12083          	lw	ra,124(sp)
    43a8:	07812403          	lw	s0,120(sp)
    43ac:	08010113          	add	sp,sp,128
    43b0:	00008067          	ret

000043b4 <.L12>:
    43b4:	00300593          	li	a1,3
    43b8:	00040513          	mv	a0,s0
    43bc:	579020ef          	jal	7134 <__GI_fcntl>
    43c0:	fff00793          	li	a5,-1
    43c4:	fcf50ee3          	beq	a0,a5,43a0 <.L11>
    43c8:	00357793          	and	a5,a0,3
    43cc:	00100713          	li	a4,1
    43d0:	00e79a63          	bne	a5,a4,43e4 <.L15>
    43d4:	0000c797          	auipc	a5,0xc
    43d8:	ec07a783          	lw	a5,-320(a5) # 10294 <_GLOBAL_OFFSET_TABLE_+0xc>
    43dc:	01600713          	li	a4,22
    43e0:	fbdff06f          	j	439c <.L17>

000043e4 <.L15>:
    43e4:	04012583          	lw	a1,64(sp)
    43e8:	00040513          	mv	a0,s0
    43ec:	eedff0ef          	jal	42d8 <fd_to_DIR>
    43f0:	fb5ff06f          	j	43a4 <.L9>

000043f4 <__GI_opendir>:
    43f4:	000915b7          	lui	a1,0x91
    43f8:	f8010113          	add	sp,sp,-128
    43fc:	80058593          	add	a1,a1,-2048 # 90800 <_ebss+0x7a910>
    4400:	06112e23          	sw	ra,124(sp)
    4404:	06812c23          	sw	s0,120(sp)
    4408:	06912a23          	sw	s1,116(sp)
    440c:	b84fd0ef          	jal	1790 <__open2_nocancel>
    4410:	00054e63          	bltz	a0,442c <.L19>
    4414:	00810593          	add	a1,sp,8
    4418:	00050413          	mv	s0,a0
    441c:	595020ef          	jal	71b0 <__GI_fstat64>
    4420:	02055463          	bgez	a0,4448 <.L20>
    4424:	00040513          	mv	a0,s0
    4428:	a60fd0ef          	jal	1688 <__close_nocancel_no_status>

0000442c <.L19>:
    442c:	00000493          	li	s1,0

00004430 <.L18>:
    4430:	07c12083          	lw	ra,124(sp)
    4434:	07812403          	lw	s0,120(sp)
    4438:	00048513          	mv	a0,s1
    443c:	07412483          	lw	s1,116(sp)
    4440:	08010113          	add	sp,sp,128
    4444:	00008067          	ret

00004448 <.L20>:
    4448:	00100613          	li	a2,1
    444c:	00200593          	li	a1,2
    4450:	00040513          	mv	a0,s0
    4454:	495020ef          	jal	70e8 <__fcntl_nocancel>
    4458:	04012583          	lw	a1,64(sp)
    445c:	00040513          	mv	a0,s0
    4460:	e79ff0ef          	jal	42d8 <fd_to_DIR>
    4464:	00050493          	mv	s1,a0
    4468:	fc0514e3          	bnez	a0,4430 <.L18>
    446c:	00040513          	mv	a0,s0
    4470:	a18fd0ef          	jal	1688 <__close_nocancel_no_status>
    4474:	fbdff06f          	j	4430 <.L18>

00004478 <__GI_readdir64>:
    4478:	ff010113          	add	sp,sp,-16
    447c:	00812423          	sw	s0,8(sp)
    4480:	00112623          	sw	ra,12(sp)
    4484:	00050413          	mv	s0,a0

00004488 <.L4>:
    4488:	00842703          	lw	a4,8(s0)
    448c:	00442783          	lw	a5,4(s0)
    4490:	00c42583          	lw	a1,12(s0)
    4494:	00e7ee63          	bltu	a5,a4,44b0 <.L2>
    4498:	01442603          	lw	a2,20(s0)
    449c:	00042503          	lw	a0,0(s0)
    44a0:	539020ef          	jal	71d8 <__getdents>
    44a4:	04a05663          	blez	a0,44f0 <.L6>
    44a8:	00a42423          	sw	a0,8(s0)
    44ac:	00042223          	sw	zero,4(s0)

000044b0 <.L2>:
    44b0:	00442703          	lw	a4,4(s0)
    44b4:	00c42503          	lw	a0,12(s0)
    44b8:	00e50533          	add	a0,a0,a4
    44bc:	01055783          	lhu	a5,16(a0)
    44c0:	00e787b3          	add	a5,a5,a4
    44c4:	00f42223          	sw	a5,4(s0)
    44c8:	00852783          	lw	a5,8(a0)
    44cc:	00452703          	lw	a4,4(a0)
    44d0:	00f42823          	sw	a5,16(s0)
    44d4:	00052783          	lw	a5,0(a0)
    44d8:	00e7e7b3          	or	a5,a5,a4
    44dc:	fa0786e3          	beqz	a5,4488 <.L4>

000044e0 <.L1>:
    44e0:	00c12083          	lw	ra,12(sp)
    44e4:	00812403          	lw	s0,8(sp)
    44e8:	01010113          	add	sp,sp,16
    44ec:	00008067          	ret

000044f0 <.L6>:
    44f0:	00000513          	li	a0,0
    44f4:	fedff06f          	j	44e0 <.L1>

000044f8 <__errno_location>:
    44f8:	0000c517          	auipc	a0,0xc
    44fc:	d9c52503          	lw	a0,-612(a0) # 10294 <_GLOBAL_OFFSET_TABLE_+0xc>
    4500:	00008067          	ret

00004504 <__h_errno_location>:
    4504:	0000c517          	auipc	a0,0xc
    4508:	d9c52503          	lw	a0,-612(a0) # 102a0 <_GLOBAL_OFFSET_TABLE_+0x18>
    450c:	00008067          	ret

00004510 <__GI_config_open>:
    4510:	ff010113          	add	sp,sp,-16
    4514:	0000e597          	auipc	a1,0xe
    4518:	aa858593          	add	a1,a1,-1368 # 11fbc <.LC0>
    451c:	00812423          	sw	s0,8(sp)
    4520:	00112623          	sw	ra,12(sp)
    4524:	494000ef          	jal	49b8 <__GI_fopen>
    4528:	00050413          	mv	s0,a0
    452c:	00050c63          	beqz	a0,4544 <.L1>
    4530:	01800593          	li	a1,24
    4534:	00100513          	li	a0,1
    4538:	701010ef          	jal	6438 <calloc>
    453c:	00051e63          	bnez	a0,4558 <.L3>

00004540 <.L4>:
    4540:	00050413          	mv	s0,a0

00004544 <.L1>:
    4544:	00c12083          	lw	ra,12(sp)
    4548:	00040513          	mv	a0,s0
    454c:	00812403          	lw	s0,8(sp)
    4550:	01010113          	add	sp,sp,16
    4554:	00008067          	ret

00004558 <.L3>:
    4558:	00852023          	sw	s0,0(a0)
    455c:	fe5ff06f          	j	4540 <.L4>

00004560 <__GI_config_close>:
    4560:	04050063          	beqz	a0,45a0 <.L9>
    4564:	ff010113          	add	sp,sp,-16
    4568:	00812423          	sw	s0,8(sp)
    456c:	00050413          	mv	s0,a0
    4570:	00052503          	lw	a0,0(a0)
    4574:	00112623          	sw	ra,12(sp)
    4578:	358000ef          	jal	48d0 <__GI_fclose>
    457c:	01442783          	lw	a5,20(s0)
    4580:	00078663          	beqz	a5,458c <.L11>
    4584:	00442503          	lw	a0,4(s0)
    4588:	f59fe0ef          	jal	34e0 <free>

0000458c <.L11>:
    458c:	00040513          	mv	a0,s0
    4590:	00812403          	lw	s0,8(sp)
    4594:	00c12083          	lw	ra,12(sp)
    4598:	01010113          	add	sp,sp,16
    459c:	f45fe06f          	j	34e0 <free>

000045a0 <.L9>:
    45a0:	00008067          	ret

000045a4 <__GI_config_read>:
    45a4:	fa010113          	add	sp,sp,-96
    45a8:	04112e23          	sw	ra,92(sp)
    45ac:	04812c23          	sw	s0,88(sp)
    45b0:	04912a23          	sw	s1,84(sp)
    45b4:	05212823          	sw	s2,80(sp)
    45b8:	05312623          	sw	s3,76(sp)
    45bc:	05412423          	sw	s4,72(sp)
    45c0:	05512223          	sw	s5,68(sp)
    45c4:	05612023          	sw	s6,64(sp)
    45c8:	03712e23          	sw	s7,60(sp)
    45cc:	03812c23          	sw	s8,56(sp)
    45d0:	03912a23          	sw	s9,52(sp)
    45d4:	03a12823          	sw	s10,48(sp)
    45d8:	03b12623          	sw	s11,44(sp)
    45dc:	0e050063          	beqz	a0,46bc <.L20>
    45e0:	0ff67a13          	zext.b	s4,a2
    45e4:	002a1793          	sll	a5,s4,0x2
    45e8:	00865a93          	srl	s5,a2,0x8
    45ec:	00f12623          	sw	a5,12(sp)
    45f0:	000209b7          	lui	s3,0x20
    45f4:	00178793          	add	a5,a5,1
    45f8:	00040b37          	lui	s6,0x40
    45fc:	00010bb7          	lui	s7,0x10
    4600:	00050c93          	mv	s9,a0
    4604:	00058913          	mv	s2,a1
    4608:	00060493          	mv	s1,a2
    460c:	00068413          	mv	s0,a3
    4610:	0ffafa93          	zext.b	s5,s5
    4614:	00f12823          	sw	a5,16(sp)
    4618:	013679b3          	and	s3,a2,s3
    461c:	01667b33          	and	s6,a2,s6
    4620:	01767bb3          	and	s7,a2,s7

00004624 <.L21>:
    4624:	004ca683          	lw	a3,4(s9)
    4628:	010ca703          	lw	a4,16(s9)
    462c:	04069263          	bnez	a3,4670 <.L22>
    4630:	00071663          	bnez	a4,463c <.L23>
    4634:	05100713          	li	a4,81
    4638:	00eca823          	sw	a4,16(s9)

0000463c <.L23>:
    463c:	008ca703          	lw	a4,8(s9)
    4640:	00071663          	bnez	a4,464c <.L24>
    4644:	01012783          	lw	a5,16(sp)
    4648:	00fca423          	sw	a5,8(s9)

0000464c <.L24>:
    464c:	008ca503          	lw	a0,8(s9)
    4650:	010ca703          	lw	a4,16(s9)
    4654:	00e50533          	add	a0,a0,a4
    4658:	c71fe0ef          	jal	32c8 <malloc>
    465c:	00aca223          	sw	a0,4(s9)
    4660:	04050e63          	beqz	a0,46bc <.L20>
    4664:	014ca703          	lw	a4,20(s9)
    4668:	00176713          	or	a4,a4,1
    466c:	00ecaa23          	sw	a4,20(s9)

00004670 <.L22>:
    4670:	004ca703          	lw	a4,4(s9)
    4674:	008ca683          	lw	a3,8(s9)
    4678:	00000d93          	li	s11,0
    467c:	00002c37          	lui	s8,0x2
    4680:	00d70733          	add	a4,a4,a3
    4684:	00eca623          	sw	a4,12(s9)
    4688:	05c00d13          	li	s10,92

0000468c <.L26>:
    468c:	010ca583          	lw	a1,16(s9)
    4690:	00cca503          	lw	a0,12(s9)
    4694:	000ca603          	lw	a2,0(s9)
    4698:	41b585b3          	sub	a1,a1,s11
    469c:	01b50533          	add	a0,a0,s11
    46a0:	05d010ef          	jal	5efc <__GI_fgets>
    46a4:	00cca703          	lw	a4,12(s9)
    46a8:	04051c63          	bnez	a0,4700 <.L27>
    46ac:	010ca603          	lw	a2,16(s9)
    46b0:	00000593          	li	a1,0
    46b4:	00070513          	mv	a0,a4
    46b8:	ee0fe0ef          	jal	2d98 <__GI_memset>

000046bc <.L20>:
    46bc:	00000d93          	li	s11,0

000046c0 <.L18>:
    46c0:	05c12083          	lw	ra,92(sp)
    46c4:	05812403          	lw	s0,88(sp)
    46c8:	05412483          	lw	s1,84(sp)
    46cc:	05012903          	lw	s2,80(sp)
    46d0:	04c12983          	lw	s3,76(sp)
    46d4:	04812a03          	lw	s4,72(sp)
    46d8:	04412a83          	lw	s5,68(sp)
    46dc:	04012b03          	lw	s6,64(sp)
    46e0:	03c12b83          	lw	s7,60(sp)
    46e4:	03812c03          	lw	s8,56(sp)
    46e8:	03412c83          	lw	s9,52(sp)
    46ec:	03012d03          	lw	s10,48(sp)
    46f0:	000d8513          	mv	a0,s11
    46f4:	02c12d83          	lw	s11,44(sp)
    46f8:	06010113          	add	sp,sp,96
    46fc:	00008067          	ret

00004700 <.L27>:
    4700:	01b70533          	add	a0,a4,s11
    4704:	00e12a23          	sw	a4,20(sp)
    4708:	f34fe0ef          	jal	2e3c <__GI_strlen>
    470c:	01412703          	lw	a4,20(sp)
    4710:	00ad8db3          	add	s11,s11,a0
    4714:	00a00593          	li	a1,10
    4718:	00070513          	mv	a0,a4
    471c:	289010ef          	jal	61a4 <__GI_strchr>
    4720:	02050063          	beqz	a0,4740 <.L29>
    4724:	00054703          	lbu	a4,0(a0)
    4728:	fff70713          	add	a4,a4,-1 # 3fff <_dl_aux_init+0x3>
    472c:	0ff77713          	zext.b	a4,a4
    4730:	00e50023          	sb	a4,0(a0)
    4734:	0fa71a63          	bne	a4,s10,4828 <.L30>
    4738:	ffed8d93          	add	s11,s11,-2
    473c:	f51ff06f          	j	468c <.L26>

00004740 <.L29>:
    4740:	014ca703          	lw	a4,20(s9)
    4744:	02071863          	bnez	a4,4774 <.L72>
    4748:	fff00d13          	li	s10,-1
    474c:	00a00c13          	li	s8,10

00004750 <.L32>:
    4750:	000ca503          	lw	a0,0(s9)
    4754:	01052703          	lw	a4,16(a0)
    4758:	01852683          	lw	a3,24(a0)
    475c:	04d77463          	bgeu	a4,a3,47a4 <.L33>
    4760:	00170693          	add	a3,a4,1
    4764:	00d52823          	sw	a3,16(a0)
    4768:	00074503          	lbu	a0,0(a4)

0000476c <.L34>:
    476c:	ff8512e3          	bne	a0,s8,4750 <.L32>
    4770:	03c0006f          	j	47ac <.L35>

00004774 <.L72>:
    4774:	010ca703          	lw	a4,16(s9)
    4778:	008ca583          	lw	a1,8(s9)
    477c:	004ca503          	lw	a0,4(s9)
    4780:	00ec0733          	add	a4,s8,a4
    4784:	00eca823          	sw	a4,16(s9)
    4788:	00b705b3          	add	a1,a4,a1
    478c:	511010ef          	jal	649c <realloc>
    4790:	008ca703          	lw	a4,8(s9)
    4794:	00aca223          	sw	a0,4(s9)
    4798:	00e50533          	add	a0,a0,a4
    479c:	00aca623          	sw	a0,12(s9)
    47a0:	eedff06f          	j	468c <.L26>

000047a4 <.L33>:
    47a4:	64c010ef          	jal	5df0 <__GI___fgetc_unlocked>
    47a8:	fda512e3          	bne	a0,s10,476c <.L34>

000047ac <.L35>:
    47ac:	fff00713          	li	a4,-1
    47b0:	f0ed86e3          	beq	s11,a4,46bc <.L20>
    47b4:	00ccad03          	lw	s10,12(s9)
    47b8:	00098a63          	beqz	s3,47cc <.L37>
    47bc:	000d0513          	mv	a0,s10
    47c0:	00140593          	add	a1,s0,1
    47c4:	439010ef          	jal	63fc <__GI_strspn>
    47c8:	00ad0d33          	add	s10,s10,a0

000047cc <.L37>:
    47cc:	000d4683          	lbu	a3,0(s10)
    47d0:	004ca503          	lw	a0,4(s9)
    47d4:	e40688e3          	beqz	a3,4624 <.L21>
    47d8:	00044603          	lbu	a2,0(s0)
    47dc:	e4d604e3          	beq	a2,a3,4624 <.L21>
    47e0:	00c12603          	lw	a2,12(sp)
    47e4:	00a92023          	sw	a0,0(s2)
    47e8:	00000593          	li	a1,0
    47ec:	dacfe0ef          	jal	2d98 <__GI_memset>
    47f0:	fffa0793          	add	a5,s4,-1
    47f4:	00f12c23          	sw	a5,24(sp)
    47f8:	00140793          	add	a5,s0,1
    47fc:	00000d93          	li	s11,0
    4800:	00f12e23          	sw	a5,28(sp)

00004804 <.L39>:
    4804:	000d4603          	lbu	a2,0(s10)
    4808:	00060863          	beqz	a2,4818 <.L51>
    480c:	00044583          	lbu	a1,0(s0)
    4810:	00c58463          	beq	a1,a2,4818 <.L51>
    4814:	014dce63          	blt	s11,s4,4830 <.L52>

00004818 <.L51>:
    4818:	eb5dd4e3          	bge	s11,s5,46c0 <.L18>
    481c:	00b49713          	sll	a4,s1,0xb
    4820:	e00752e3          	bgez	a4,4624 <.L21>
    4824:	e99ff06f          	j	46bc <.L20>

00004828 <.L30>:
    4828:	fffd8d93          	add	s11,s11,-1
    482c:	f81ff06f          	j	47ac <.L35>

00004830 <.L52>:
    4830:	00092603          	lw	a2,0(s2)
    4834:	002d9593          	sll	a1,s11,0x2
    4838:	01812783          	lw	a5,24(sp)
    483c:	00b60633          	add	a2,a2,a1
    4840:	01a62023          	sw	s10,0(a2)
    4844:	00044c03          	lbu	s8,0(s0)
    4848:	01b79463          	bne	a5,s11,4850 <.L40>
    484c:	040b1063          	bnez	s6,488c <.L41>

00004850 <.L40>:
    4850:	001c3593          	seqz	a1,s8
    4854:	000d0513          	mv	a0,s10
    4858:	00b405b3          	add	a1,s0,a1
    485c:	2d9010ef          	jal	6334 <__GI_strcspn>
    4860:	00ad0d33          	add	s10,s10,a0

00004864 <.L43>:
    4864:	000d4603          	lbu	a2,0(s10)
    4868:	04cc1c63          	bne	s8,a2,48c0 <.L46>
    486c:	000d0023          	sb	zero,0(s10)

00004870 <.L49>:
    4870:	000b8a63          	beqz	s7,4884 <.L50>
    4874:	01c12583          	lw	a1,28(sp)
    4878:	000d0513          	mv	a0,s10
    487c:	381010ef          	jal	63fc <__GI_strspn>
    4880:	00ad0d33          	add	s10,s10,a0

00004884 <.L50>:
    4884:	001d8d93          	add	s11,s11,1
    4888:	f7dff06f          	j	4804 <.L39>

0000488c <.L41>:
    488c:	000d0513          	mv	a0,s10
    4890:	000c0593          	mv	a1,s8
    4894:	1cd010ef          	jal	6260 <__GI_strchrnul>
    4898:	00050d13          	mv	s10,a0
    489c:	fc0984e3          	beqz	s3,4864 <.L43>
    48a0:	00140793          	add	a5,s0,1
    48a4:	00f12a23          	sw	a5,20(sp)

000048a8 <.L44>:
    48a8:	fffd4583          	lbu	a1,-1(s10)
    48ac:	01412503          	lw	a0,20(sp)
    48b0:	0f5010ef          	jal	61a4 <__GI_strchr>
    48b4:	fa0508e3          	beqz	a0,4864 <.L43>
    48b8:	fffd0d13          	add	s10,s10,-1
    48bc:	fedff06f          	j	48a8 <.L44>

000048c0 <.L46>:
    48c0:	fa0608e3          	beqz	a2,4870 <.L49>
    48c4:	000d0023          	sb	zero,0(s10)
    48c8:	001d0d13          	add	s10,s10,1
    48cc:	fa5ff06f          	j	4870 <.L49>

000048d0 <__GI_fclose>:
    48d0:	0000c717          	auipc	a4,0xc
    48d4:	9d472703          	lw	a4,-1580(a4) # 102a4 <_GLOBAL_OFFSET_TABLE_+0x1c>
    48d8:	00072783          	lw	a5,0(a4)
    48dc:	ff010113          	add	sp,sp,-16
    48e0:	00812423          	sw	s0,8(sp)
    48e4:	00112623          	sw	ra,12(sp)
    48e8:	00912223          	sw	s1,4(sp)
    48ec:	00050413          	mv	s0,a0
    48f0:	0aa79463          	bne	a5,a0,4998 <.L2>
    48f4:	02052783          	lw	a5,32(a0)
    48f8:	00f72023          	sw	a5,0(a4)

000048fc <.L3>:
    48fc:	00045783          	lhu	a5,0(s0)
    4900:	00000493          	li	s1,0
    4904:	0407f793          	and	a5,a5,64
    4908:	00078863          	beqz	a5,4918 <.L5>
    490c:	00040513          	mv	a0,s0
    4910:	408010ef          	jal	5d18 <__GI_fflush>
    4914:	00050493          	mv	s1,a0

00004918 <.L5>:
    4918:	00442503          	lw	a0,4(s0)
    491c:	ffe00793          	li	a5,-2
    4920:	08f51863          	bne	a0,a5,49b0 <.L6>
    4924:	03442783          	lw	a5,52(s0)
    4928:	00078a63          	beqz	a5,493c <.L9>
    492c:	02442503          	lw	a0,36(s0)
    4930:	000780e7          	jalr	a5

00004934 <.L8>:
    4934:	00055463          	bgez	a0,493c <.L9>
    4938:	fff00493          	li	s1,-1

0000493c <.L9>:
    493c:	00045703          	lhu	a4,0(s0)
    4940:	fff00793          	li	a5,-1
    4944:	00f42223          	sw	a5,4(s0)
    4948:	000067b7          	lui	a5,0x6
    494c:	00f777b3          	and	a5,a4,a5
    4950:	0307e793          	or	a5,a5,48
    4954:	00f41023          	sh	a5,0(s0)
    4958:	01171793          	sll	a5,a4,0x11
    495c:	0007d663          	bgez	a5,4968 <.L10>
    4960:	00842503          	lw	a0,8(s0)
    4964:	b7dfe0ef          	jal	34e0 <free>

00004968 <.L10>:
    4968:	00045783          	lhu	a5,0(s0)
    496c:	01279713          	sll	a4,a5,0x12
    4970:	00075663          	bgez	a4,497c <.L1>
    4974:	00040513          	mv	a0,s0
    4978:	b69fe0ef          	jal	34e0 <free>

0000497c <.L1>:
    497c:	00c12083          	lw	ra,12(sp)
    4980:	00812403          	lw	s0,8(sp)
    4984:	00048513          	mv	a0,s1
    4988:	00412483          	lw	s1,4(sp)
    498c:	01010113          	add	sp,sp,16
    4990:	00008067          	ret

00004994 <.L12>:
    4994:	00070793          	mv	a5,a4

00004998 <.L2>:
    4998:	f60782e3          	beqz	a5,48fc <.L3>
    499c:	0207a703          	lw	a4,32(a5) # 6020 <.L5+0x4>
    49a0:	fe871ae3          	bne	a4,s0,4994 <.L12>
    49a4:	02042703          	lw	a4,32(s0)
    49a8:	02e7a023          	sw	a4,32(a5)
    49ac:	f51ff06f          	j	48fc <.L3>

000049b0 <.L6>:
    49b0:	cb1fc0ef          	jal	1660 <__GI_close>
    49b4:	f81ff06f          	j	4934 <.L8>

000049b8 <__GI_fopen>:
    49b8:	fff00693          	li	a3,-1
    49bc:	00000613          	li	a2,0
    49c0:	16c0006f          	j	4b2c <_stdio_fopen>

000049c4 <__stdio_WRITE>:
    49c4:	fd010113          	add	sp,sp,-48
    49c8:	01512a23          	sw	s5,20(sp)
    49cc:	80000ab7          	lui	s5,0x80000
    49d0:	02812423          	sw	s0,40(sp)
    49d4:	02912223          	sw	s1,36(sp)
    49d8:	03212023          	sw	s2,32(sp)
    49dc:	01312e23          	sw	s3,28(sp)
    49e0:	01612823          	sw	s6,16(sp)
    49e4:	01712623          	sw	s7,12(sp)
    49e8:	01812423          	sw	s8,8(sp)
    49ec:	02112623          	sw	ra,44(sp)
    49f0:	01412c23          	sw	s4,24(sp)
    49f4:	00050493          	mv	s1,a0
    49f8:	00058413          	mv	s0,a1
    49fc:	00060993          	mv	s3,a2
    4a00:	00060913          	mv	s2,a2
    4a04:	fffa8a93          	add	s5,s5,-1 # 7fffffff <_ebss+0x7ffea10f>
    4a08:	ffe00b93          	li	s7,-2
    4a0c:	0000cb17          	auipc	s6,0xc
    4a10:	888b2b03          	lw	s6,-1912(s6) # 10294 <_GLOBAL_OFFSET_TABLE_+0xc>
    4a14:	00b00c13          	li	s8,11

00004a18 <.L2>:
    4a18:	04090c63          	beqz	s2,4a70 <.L10>
    4a1c:	00090a13          	mv	s4,s2
    4a20:	00090613          	mv	a2,s2
    4a24:	00095463          	bgez	s2,4a2c <.L3>
    4a28:	000a8613          	mv	a2,s5

00004a2c <.L3>:
    4a2c:	0044a503          	lw	a0,4(s1)
    4a30:	09751c63          	bne	a0,s7,4ac8 <.L4>
    4a34:	02c4a783          	lw	a5,44(s1)
    4a38:	06079663          	bnez	a5,4aa4 <.L5>
    4a3c:	01600793          	li	a5,22
    4a40:	00fb2023          	sw	a5,0(s6)

00004a44 <.L6>:
    4a44:	0004d783          	lhu	a5,0(s1)
    4a48:	00400713          	li	a4,4
    4a4c:	0087e793          	or	a5,a5,8
    4a50:	00f49023          	sh	a5,0(s1)
    4a54:	0000c797          	auipc	a5,0xc
    4a58:	8407a783          	lw	a5,-1984(a5) # 10294 <_GLOBAL_OFFSET_TABLE_+0xc>
    4a5c:	0007a783          	lw	a5,0(a5)
    4a60:	06e78a63          	beq	a5,a4,4ad4 <.L9>
    4a64:	00b00713          	li	a4,11
    4a68:	06e78663          	beq	a5,a4,4ad4 <.L9>

00004a6c <.L11>:
    4a6c:	412989b3          	sub	s3,s3,s2

00004a70 <.L10>:
    4a70:	02c12083          	lw	ra,44(sp)
    4a74:	02812403          	lw	s0,40(sp)
    4a78:	02412483          	lw	s1,36(sp)
    4a7c:	02012903          	lw	s2,32(sp)
    4a80:	01812a03          	lw	s4,24(sp)
    4a84:	01412a83          	lw	s5,20(sp)
    4a88:	01012b03          	lw	s6,16(sp)
    4a8c:	00c12b83          	lw	s7,12(sp)
    4a90:	00812c03          	lw	s8,8(sp)
    4a94:	00098513          	mv	a0,s3
    4a98:	01c12983          	lw	s3,28(sp)
    4a9c:	03010113          	add	sp,sp,48
    4aa0:	00008067          	ret

00004aa4 <.L5>:
    4aa4:	0244a503          	lw	a0,36(s1)
    4aa8:	018b2023          	sw	s8,0(s6)
    4aac:	00040593          	mv	a1,s0
    4ab0:	000780e7          	jalr	a5
    4ab4:	f80508e3          	beqz	a0,4a44 <.L6>

00004ab8 <.L7>:
    4ab8:	f80546e3          	bltz	a0,4a44 <.L6>
    4abc:	40a90933          	sub	s2,s2,a0
    4ac0:	00a40433          	add	s0,s0,a0
    4ac4:	f55ff06f          	j	4a18 <.L2>

00004ac8 <.L4>:
    4ac8:	00040593          	mv	a1,s0
    4acc:	d19fc0ef          	jal	17e4 <__GI_write>
    4ad0:	fe9ff06f          	j	4ab8 <.L7>

00004ad4 <.L9>:
    4ad4:	0084a783          	lw	a5,8(s1)
    4ad8:	00c4a683          	lw	a3,12(s1)
    4adc:	40f68733          	sub	a4,a3,a5
    4ae0:	f8f686e3          	beq	a3,a5,4a6c <.L11>
    4ae4:	00e96463          	bltu	s2,a4,4aec <.L12>
    4ae8:	00070a13          	mv	s4,a4

00004aec <.L12>:
    4aec:	00a00693          	li	a3,10
    4af0:	01440a33          	add	s4,s0,s4

00004af4 <.L15>:
    4af4:	00044703          	lbu	a4,0(s0)
    4af8:	00e78023          	sb	a4,0(a5)
    4afc:	00d71863          	bne	a4,a3,4b0c <.L13>
    4b00:	0004d703          	lhu	a4,0(s1)
    4b04:	10077713          	and	a4,a4,256
    4b08:	00071863          	bnez	a4,4b18 <.L14>

00004b0c <.L13>:
    4b0c:	00140413          	add	s0,s0,1
    4b10:	00178793          	add	a5,a5,1
    4b14:	ff4410e3          	bne	s0,s4,4af4 <.L15>

00004b18 <.L14>:
    4b18:	0084a703          	lw	a4,8(s1)
    4b1c:	00f4a823          	sw	a5,16(s1)
    4b20:	40e787b3          	sub	a5,a5,a4
    4b24:	40f90933          	sub	s2,s2,a5
    4b28:	f45ff06f          	j	4a6c <.L11>

00004b2c <_stdio_fopen>:
    4b2c:	fe010113          	add	sp,sp,-32
    4b30:	00812c23          	sw	s0,24(sp)
    4b34:	01212823          	sw	s2,16(sp)
    4b38:	01312623          	sw	s3,12(sp)
    4b3c:	00112e23          	sw	ra,28(sp)
    4b40:	00912a23          	sw	s1,20(sp)
    4b44:	0005c783          	lbu	a5,0(a1)
    4b48:	07200713          	li	a4,114
    4b4c:	00050913          	mv	s2,a0
    4b50:	00060413          	mv	s0,a2
    4b54:	00068993          	mv	s3,a3
    4b58:	04e78663          	beq	a5,a4,4ba4 <.L26>
    4b5c:	07700713          	li	a4,119
    4b60:	0ee78663          	beq	a5,a4,4c4c <.L27>
    4b64:	06100713          	li	a4,97
    4b68:	0ee78663          	beq	a5,a4,4c54 <.L28>
    4b6c:	0000b797          	auipc	a5,0xb
    4b70:	7287a783          	lw	a5,1832(a5) # 10294 <_GLOBAL_OFFSET_TABLE_+0xc>
    4b74:	01600713          	li	a4,22
    4b78:	00e7a023          	sw	a4,0(a5)
    4b7c:	0a061c63          	bnez	a2,4c34 <.L5>

00004b80 <.L8>:
    4b80:	00000413          	li	s0,0

00004b84 <.L6>:
    4b84:	01c12083          	lw	ra,28(sp)
    4b88:	00040513          	mv	a0,s0
    4b8c:	01812403          	lw	s0,24(sp)
    4b90:	01412483          	lw	s1,20(sp)
    4b94:	01012903          	lw	s2,16(sp)
    4b98:	00c12983          	lw	s3,12(sp)
    4b9c:	02010113          	add	sp,sp,32
    4ba0:	00008067          	ret

00004ba4 <.L26>:
    4ba4:	00000493          	li	s1,0

00004ba8 <.L2>:
    4ba8:	0015c703          	lbu	a4,1(a1)
    4bac:	06200793          	li	a5,98
    4bb0:	00f71463          	bne	a4,a5,4bb8 <.L9>
    4bb4:	00158593          	add	a1,a1,1

00004bb8 <.L9>:
    4bb8:	0015c703          	lbu	a4,1(a1)
    4bbc:	02b00793          	li	a5,43
    4bc0:	00f71863          	bne	a4,a5,4bd0 <.L10>
    4bc4:	0014e493          	or	s1,s1,1
    4bc8:	00158593          	add	a1,a1,1
    4bcc:	00148493          	add	s1,s1,1

00004bd0 <.L10>:
    4bd0:	07800713          	li	a4,120

00004bd4 <.L11>:
    4bd4:	0015c783          	lbu	a5,1(a1)
    4bd8:	00158593          	add	a1,a1,1
    4bdc:	08079063          	bnez	a5,4c5c <.L13>
    4be0:	02041063          	bnez	s0,4c00 <.L14>
    4be4:	02400513          	li	a0,36
    4be8:	ee0fe0ef          	jal	32c8 <malloc>
    4bec:	00050413          	mv	s0,a0
    4bf0:	f80508e3          	beqz	a0,4b80 <.L8>
    4bf4:	000027b7          	lui	a5,0x2
    4bf8:	00f51023          	sh	a5,0(a0)
    4bfc:	00052423          	sw	zero,8(a0)

00004c00 <.L14>:
    4c00:	1609c263          	bltz	s3,4d64 <.L15>
    4c04:	000087b7          	lui	a5,0x8
    4c08:	00378793          	add	a5,a5,3 # 8003 <__kernel_rem_pio2+0x63>
    4c0c:	00f4f7b3          	and	a5,s1,a5
    4c10:	00178793          	add	a5,a5,1
    4c14:	00190713          	add	a4,s2,1
    4c18:	01342223          	sw	s3,4(s0)
    4c1c:	00f77733          	and	a4,a4,a5
    4c20:	04f70463          	beq	a4,a5,4c68 <.L16>

00004c24 <.L41>:
    4c24:	0000b797          	auipc	a5,0xb
    4c28:	6707a783          	lw	a5,1648(a5) # 10294 <_GLOBAL_OFFSET_TABLE_+0xc>
    4c2c:	01600713          	li	a4,22
    4c30:	00e7a023          	sw	a4,0(a5)

00004c34 <.L5>:
    4c34:	00045783          	lhu	a5,0(s0)
    4c38:	01279713          	sll	a4,a5,0x12
    4c3c:	f40752e3          	bgez	a4,4b80 <.L8>
    4c40:	00040513          	mv	a0,s0
    4c44:	89dfe0ef          	jal	34e0 <free>
    4c48:	f39ff06f          	j	4b80 <.L8>

00004c4c <.L27>:
    4c4c:	24100493          	li	s1,577
    4c50:	f59ff06f          	j	4ba8 <.L2>

00004c54 <.L28>:
    4c54:	44100493          	li	s1,1089
    4c58:	f51ff06f          	j	4ba8 <.L2>

00004c5c <.L13>:
    4c5c:	f6e79ce3          	bne	a5,a4,4bd4 <.L11>
    4c60:	0804e493          	or	s1,s1,128
    4c64:	f71ff06f          	j	4bd4 <.L11>

00004c68 <.L16>:
    4c68:	fff94793          	not	a5,s2
    4c6c:	0097f7b3          	and	a5,a5,s1
    4c70:	4007f793          	and	a5,a5,1024
    4c74:	0c079c63          	bnez	a5,4d4c <.L17>

00004c78 <.L20>:
    4c78:	000087b7          	lui	a5,0x8
    4c7c:	00f977b3          	and	a5,s2,a5
    4c80:	00f4e4b3          	or	s1,s1,a5

00004c84 <.L18>:
    4c84:	00045783          	lhu	a5,0(s0)
    4c88:	00002737          	lui	a4,0x2
    4c8c:	00442503          	lw	a0,4(s0)
    4c90:	00e7f7b3          	and	a5,a5,a4
    4c94:	ffff8737          	lui	a4,0xffff8
    4c98:	40070713          	add	a4,a4,1024 # ffff8400 <_ebss+0xfffe2510>
    4c9c:	00e4f733          	and	a4,s1,a4
    4ca0:	0034f493          	and	s1,s1,3
    4ca4:	00148493          	add	s1,s1,1
    4ca8:	0034c493          	xor	s1,s1,3
    4cac:	00e7e7b3          	or	a5,a5,a4
    4cb0:	00449493          	sll	s1,s1,0x4
    4cb4:	0097e7b3          	or	a5,a5,s1
    4cb8:	00f41023          	sh	a5,0(s0)
    4cbc:	800007b7          	lui	a5,0x80000
    4cc0:	fff78793          	add	a5,a5,-1 # 7fffffff <_ebss+0x7ffea10f>
    4cc4:	02f50463          	beq	a0,a5,4cec <.L22>
    4cc8:	0000b497          	auipc	s1,0xb
    4ccc:	5cc4a483          	lw	s1,1484(s1) # 10294 <_GLOBAL_OFFSET_TABLE_+0xc>
    4cd0:	0004a903          	lw	s2,0(s1)
    4cd4:	be4fe0ef          	jal	30b8 <__GI_isatty>
    4cd8:	00050863          	beqz	a0,4ce8 <.L23>
    4cdc:	00045783          	lhu	a5,0(s0)
    4ce0:	1007e793          	or	a5,a5,256
    4ce4:	00f41023          	sh	a5,0(s0)

00004ce8 <.L23>:
    4ce8:	0124a023          	sw	s2,0(s1)

00004cec <.L22>:
    4cec:	00842783          	lw	a5,8(s0)
    4cf0:	02079863          	bnez	a5,4d20 <.L24>
    4cf4:	00001537          	lui	a0,0x1
    4cf8:	dd0fe0ef          	jal	32c8 <malloc>
    4cfc:	00a42423          	sw	a0,8(s0)
    4d00:	08050863          	beqz	a0,4d90 <.L25>
    4d04:	000017b7          	lui	a5,0x1
    4d08:	00f50533          	add	a0,a0,a5
    4d0c:	00045783          	lhu	a5,0(s0)
    4d10:	00004737          	lui	a4,0x4
    4d14:	00a42623          	sw	a0,12(s0)
    4d18:	00e7e7b3          	or	a5,a5,a4
    4d1c:	00f41023          	sh	a5,0(s0)

00004d20 <.L24>:
    4d20:	00842783          	lw	a5,8(s0)
    4d24:	00f42c23          	sw	a5,24(s0)
    4d28:	00f42e23          	sw	a5,28(s0)
    4d2c:	00f42823          	sw	a5,16(s0)
    4d30:	00f42a23          	sw	a5,20(s0)
    4d34:	0000b797          	auipc	a5,0xb
    4d38:	5707a783          	lw	a5,1392(a5) # 102a4 <_GLOBAL_OFFSET_TABLE_+0x1c>
    4d3c:	0007a703          	lw	a4,0(a5)
    4d40:	0087a023          	sw	s0,0(a5)
    4d44:	02e42023          	sw	a4,32(s0)
    4d48:	e3dff06f          	j	4b84 <.L6>

00004d4c <.L17>:
    4d4c:	40000613          	li	a2,1024
    4d50:	00400593          	li	a1,4
    4d54:	00098513          	mv	a0,s3
    4d58:	3dc020ef          	jal	7134 <__GI_fcntl>
    4d5c:	f0050ee3          	beqz	a0,4c78 <.L20>
    4d60:	ec5ff06f          	j	4c24 <.L41>

00004d64 <.L15>:
    4d64:	fff00793          	li	a5,-1
    4d68:	00f98663          	beq	s3,a5,4d74 <.L21>
    4d6c:	000087b7          	lui	a5,0x8
    4d70:	00f4e4b3          	or	s1,s1,a5

00004d74 <.L21>:
    4d74:	1b600613          	li	a2,438
    4d78:	00048593          	mv	a1,s1
    4d7c:	00090513          	mv	a0,s2
    4d80:	9b5fc0ef          	jal	1734 <__GI_open>
    4d84:	00a42223          	sw	a0,4(s0)
    4d88:	ee055ee3          	bgez	a0,4c84 <.L18>
    4d8c:	ea9ff06f          	j	4c34 <.L5>

00004d90 <.L25>:
    4d90:	00042623          	sw	zero,12(s0)
    4d94:	f8dff06f          	j	4d20 <.L24>

00004d98 <__stdio_fwrite>:
    4d98:	00065783          	lhu	a5,0(a2)
    4d9c:	fe010113          	add	sp,sp,-32
    4da0:	00812c23          	sw	s0,24(sp)
    4da4:	00912a23          	sw	s1,20(sp)
    4da8:	01212823          	sw	s2,16(sp)
    4dac:	00112e23          	sw	ra,28(sp)
    4db0:	01312623          	sw	s3,12(sp)
    4db4:	2007f793          	and	a5,a5,512
    4db8:	00050913          	mv	s2,a0
    4dbc:	00058413          	mv	s0,a1
    4dc0:	00060493          	mv	s1,a2
    4dc4:	02078663          	beqz	a5,4df0 <.L2>

00004dc8 <.L11>:
    4dc8:	00040613          	mv	a2,s0
    4dcc:	01812403          	lw	s0,24(sp)
    4dd0:	01c12083          	lw	ra,28(sp)
    4dd4:	00c12983          	lw	s3,12(sp)
    4dd8:	00090593          	mv	a1,s2
    4ddc:	00048513          	mv	a0,s1
    4de0:	01012903          	lw	s2,16(sp)
    4de4:	01412483          	lw	s1,20(sp)
    4de8:	02010113          	add	sp,sp,32
    4dec:	bd9ff06f          	j	49c4 <__stdio_WRITE>

00004df0 <.L2>:
    4df0:	01062503          	lw	a0,16(a2)
    4df4:	00c62783          	lw	a5,12(a2)
    4df8:	00462683          	lw	a3,4(a2)
    4dfc:	ffd00713          	li	a4,-3
    4e00:	40a787b3          	sub	a5,a5,a0
    4e04:	04e69463          	bne	a3,a4,4e4c <.L3>
    4e08:	00058993          	mv	s3,a1
    4e0c:	00b7f463          	bgeu	a5,a1,4e14 <.L4>
    4e10:	00078993          	mv	s3,a5

00004e14 <.L4>:
    4e14:	00098613          	mv	a2,s3
    4e18:	00090593          	mv	a1,s2
    4e1c:	cd5fd0ef          	jal	2af0 <__GI_memcpy>
    4e20:	0104a783          	lw	a5,16(s1)
    4e24:	013787b3          	add	a5,a5,s3

00004e28 <.L25>:
    4e28:	00f4a823          	sw	a5,16(s1)

00004e2c <.L5>:
    4e2c:	01c12083          	lw	ra,28(sp)
    4e30:	00040513          	mv	a0,s0
    4e34:	01812403          	lw	s0,24(sp)
    4e38:	01412483          	lw	s1,20(sp)
    4e3c:	01012903          	lw	s2,16(sp)
    4e40:	00c12983          	lw	s3,12(sp)
    4e44:	02010113          	add	sp,sp,32
    4e48:	00008067          	ret

00004e4c <.L3>:
    4e4c:	08b7e063          	bltu	a5,a1,4ecc <.L6>
    4e50:	00058613          	mv	a2,a1
    4e54:	00090593          	mv	a1,s2
    4e58:	c99fd0ef          	jal	2af0 <__GI_memcpy>
    4e5c:	0104a783          	lw	a5,16(s1)
    4e60:	008787b3          	add	a5,a5,s0
    4e64:	00f4a823          	sw	a5,16(s1)
    4e68:	0004d783          	lhu	a5,0(s1)
    4e6c:	1007f793          	and	a5,a5,256
    4e70:	fa078ee3          	beqz	a5,4e2c <.L5>
    4e74:	00040613          	mv	a2,s0
    4e78:	00a00593          	li	a1,10
    4e7c:	00090513          	mv	a0,s2
    4e80:	254010ef          	jal	60d4 <__GI_memrchr>
    4e84:	fa0504e3          	beqz	a0,4e2c <.L5>
    4e88:	00048513          	mv	a0,s1
    4e8c:	b0dfc0ef          	jal	1998 <__stdio_wcommit>
    4e90:	f8050ee3          	beqz	a0,4e2c <.L5>
    4e94:	00040613          	mv	a2,s0
    4e98:	00857463          	bgeu	a0,s0,4ea0 <.L10>
    4e9c:	00050613          	mv	a2,a0

00004ea0 <.L10>:
    4ea0:	40c40533          	sub	a0,s0,a2
    4ea4:	00a00593          	li	a1,10
    4ea8:	00a90533          	add	a0,s2,a0
    4eac:	12c010ef          	jal	5fd8 <__GI_memchr>
    4eb0:	f6050ee3          	beqz	a0,4e2c <.L5>
    4eb4:	0104a783          	lw	a5,16(s1)
    4eb8:	00890933          	add	s2,s2,s0
    4ebc:	40a90533          	sub	a0,s2,a0
    4ec0:	40a40433          	sub	s0,s0,a0
    4ec4:	40a787b3          	sub	a5,a5,a0
    4ec8:	f61ff06f          	j	4e28 <.L25>

00004ecc <.L6>:
    4ecc:	00862783          	lw	a5,8(a2)
    4ed0:	eea78ce3          	beq	a5,a0,4dc8 <.L11>
    4ed4:	00060513          	mv	a0,a2
    4ed8:	ac1fc0ef          	jal	1998 <__stdio_wcommit>
    4edc:	ee0506e3          	beqz	a0,4dc8 <.L11>
    4ee0:	00000413          	li	s0,0
    4ee4:	f49ff06f          	j	4e2c <.L5>

00004ee8 <__stdio_trans2w>:
    4ee8:	00055603          	lhu	a2,0(a0) # 1000 <.L52+0x4>
    4eec:	ff010113          	add	sp,sp,-16
    4ef0:	00812423          	sw	s0,8(sp)
    4ef4:	00112623          	sw	ra,12(sp)
    4ef8:	02067793          	and	a5,a2,32
    4efc:	00050413          	mv	s0,a0
    4f00:	02078a63          	beqz	a5,4f34 <.L2>
    4f04:	0000b797          	auipc	a5,0xb
